(lp1
(lp2
I1
aI2
aI3
aI5
aI6
aI8
aa(lp3
I1
aI2
aI3
aI5
aI6
aI7
aa(lp4
I0
aI2
aI3
aI8
aa(lp5
I0
aI5
aag5
a(lp6
I3
aI6
aI8
aag4
a(lp7
I2
aI3
aI5
aI6
aa(lp8
I1
aI2
aI3
aI4
aI5
aI6
aa(lp9
I1
aI2
aI3
aI4
aI5
aI6
aI7
aag2
a(lp10
I0
aI6
aI8
aa(lp11
I6
aI8
aa(lp12
I0
aI3
aI8
aa(lp13
I1
aI2
aI5
aI6
aag3
ag3
a(lp14
I6
aI8
aa(lp15
I0
aI8
aag15
ag14
ag14
a(lp16
I2
aI6
aI8
aa(lp17
I1
aI2
aI3
aI4
aI5
aI6
aI7
aa(lp18
I1
aI2
aI4
aI5
aI6
aI7
aag7
ag17
ag18
ag10
a(lp19
I1
aI3
aI6
aI8
aa(lp20
I1
aI2
aI3
aI4
aI5
aI6
aI7
aag3
a(lp21
I5
aI6
aI8
aag16
ag8
ag12
ag19
ag7
ag8
ag2
a(lp22
I3
aI8
aag17
ag14
ag14
ag11
ag17
ag14
a(lp23
I1
aI2
aI5
aI6
aI7
aI8
aag9
ag14
ag22
ag14
ag8
ag17
ag6
a(lp24
I2
aI3
aI4
aI5
aI6
aI7
aI8
aa(lp25
I0
aI1
aI5
aI6
aI8
aag18
ag21
ag9
ag22
ag6
a(lp26
I1
aI2
aI4
aI5
aI6
aI7
aa(lp27
I1
aI2
aI4
aI5
aI6
aI7
aag13
ag10
ag16
ag7
a(lp28
I0
aI1
aI3
aI5
aI8
aag7
ag8
ag12
ag14
ag5
ag14
ag17
ag3
ag8
ag20
ag17
ag14
ag18
ag7
ag9
ag21
ag14
a(lp29
I0
aI1
aI2
aI5
aI6
aI7
aag24
ag2
a(lp30
I1
aI2
aI4
aI5
aI6
aI7
aag16
ag3
ag7
ag14
ag14
ag27
ag14
ag14
ag9
ag17
ag14
ag17
ag18
ag19
ag17
ag14
ag8
ag7
ag11
ag8
ag14
ag20
a(lp31
I0
aI1
aI2
aI3
aI5
aI6
aI8
aag14
ag8
ag22
ag8
ag18
a(lp32
I1
aI2
aI3
aI4
aI5
aI6
aI7
aag14
a(lp33
I0
aI8
aag14
ag14
ag8
ag8
ag14
ag16
ag24
ag12
ag8
ag18
ag2
ag27
ag23
ag6
ag31
ag20
ag30
ag25
ag8
ag14
ag19
ag16
ag7
ag20
ag27
ag22
ag11
ag18
ag17
ag14
ag18
ag23
ag7
ag14
ag8
ag5
ag15
ag24
ag14
ag9
ag3
ag14
ag20
ag14
a(lp34
I3
aI8
aag9
ag18
ag18
ag14
ag3
ag8
ag19
ag18
a(lp35
I6
aI8
aag24
ag14
ag8
ag15
ag12
ag12
ag25
ag11
ag18
ag17
ag8
ag8
ag7
ag16
ag24
ag19
ag3
ag33
ag3
ag19
ag14
ag24
ag9
ag14
ag8
ag23
ag2
ag14
ag20
ag25
ag21
ag8
ag13
ag18
ag8
ag17
ag18
ag17
ag3
ag19
ag5
ag20
ag18
ag13
ag14
ag6
ag14
ag14
ag20
ag18
ag15
ag3
ag19
ag14
ag19
a(lp36
I0
aI3
aI5
aI8
aag4
ag14
ag18
ag7
ag18
ag6
ag32
ag8
ag22
ag19
ag14
ag14
ag8
ag14
ag24
ag13
ag5
ag5
ag8
ag33
ag19
ag17
ag14
ag13
ag3
ag17
ag8
ag14
ag8
ag25
ag14
ag19
ag14
ag8
ag14
ag14
ag8
ag19
ag20
ag19
ag26
ag9
ag19
ag23
ag36
ag8
ag8
ag16
ag23
ag8
ag25
ag6
a(lp37
I0
aI3
aI6
aag27
ag9
ag5
ag19
ag8
ag7
ag5
ag8
ag17
ag4
ag29
ag3
ag8
ag18
ag22
ag9
ag8
ag25
ag33
ag19
ag19
ag8
a(lp38
I8
aag2
ag22
ag18
ag24
ag21
a(lp39
I2
aI3
aI5
aI6
aI8
aag14
ag14
ag25
ag11
ag14
ag22
ag20
ag2
ag14
ag19
ag29
ag19
ag14
ag14
ag18
ag17
ag5
ag7
ag18
ag8
ag3
ag8
ag20
ag17
ag8
ag16
ag5
ag21
ag19
ag24
ag15
ag8
ag14
ag5
ag20
ag14
ag33
a(lp40
I3
aI8
aag4
ag14
ag8
ag3
ag13
ag8
ag8
ag3
ag2
ag24
ag18
ag2
ag8
ag8
ag2
ag11
ag16
ag4
ag2
a(lp41
I0
aag17
ag17
ag24
ag4
ag7
ag37
ag21
ag20
ag8
ag14
ag14
ag12
ag18
a(lp42
I1
aI2
aI3
aI5
aI6
aag5
ag17
ag20
ag40
ag8
ag2
ag14
ag8
ag14
ag21
ag16
ag18
ag14
ag24
ag18
ag18
ag18
ag17
ag7
ag32
ag2
ag14
ag6
ag32
ag15
ag8
ag8
ag5
ag8
ag37
ag17
ag18
ag14
ag41
ag38
ag20
ag14
ag8
ag40
ag17
ag14
a(lp43
I1
aI2
aI4
aI5
aI6
aI7
aag22
ag18
a(lp44
I1
aI2
aI4
aI5
aI6
aI7
aI8
aag17
ag44
ag14
ag19
ag33
ag5
ag12
ag3
ag23
ag8
ag8
ag5
ag13
ag12
ag24
ag17
ag8
ag14
ag7
ag24
ag14
ag7
ag24
ag3
ag18
ag27
ag8
ag19
ag18
ag22
ag15
ag3
ag21
ag2
ag29
ag5
ag24
ag25
ag8
ag18
ag15
ag43
ag20
ag17
ag22
ag8
ag6
ag14
ag19
ag8
ag8
ag20
ag8
ag22
ag8
ag14
ag14
ag14
ag14
ag3
ag15
ag20
ag20
ag44
ag15
ag20
ag14
ag8
ag16
ag3
ag24
ag2
ag18
ag2
ag18
ag14
a(lp45
I5
aI6
aag7
ag22
ag8
ag13
ag31
ag19
ag3
a(lp46
I1
aI8
aag19
ag18
ag14
ag14
ag20
ag8
ag37
ag13
ag34
ag10
ag10
ag22
ag7
ag17
ag2
ag11
ag13
ag4
ag35
ag13
ag8
ag14
ag6
ag14
ag15
a(lp47
I1
aI5
aI6
aag19
ag14
ag20
ag17
ag8
ag8
ag29
ag8
ag20
ag8
ag18
ag12
ag8
ag23
ag6
ag20
ag21
ag17
ag24
ag21
ag14
ag29
ag15
ag8
ag29
ag8
ag25
ag14
ag7
ag8
ag21
ag8
ag2
ag16
ag7
ag25
ag5
ag19
ag8
ag14
ag8
ag14
ag19
ag14
ag6
ag24
ag32
ag45
ag10
ag30
ag23
ag23
ag9
ag14
ag13
ag3
ag6
ag8
ag3
ag8
ag14
ag14
ag8
ag21
ag8
ag23
ag19
ag2
ag14
ag18
ag21
ag8
ag47
ag5
ag42
ag13
ag7
ag18
ag21
ag44
ag14
ag7
ag14
ag17
ag14
ag2
ag24
ag19
ag14
ag14
ag19
ag15
ag18
ag34
ag25
ag25
ag16
ag9
ag5
ag19
ag5
ag14
ag2
ag24
ag30
ag8
ag8
ag25
ag14
ag19
ag34
ag13
ag8
ag8
ag27
ag15
ag13
ag43
ag20
ag20
ag19
ag8
ag14
ag14
ag19
ag25
ag7
ag19
ag14
ag19
ag9
ag6
ag8
ag7
ag24
ag5
ag8
ag2
ag18
ag14
ag19
ag8
ag15
ag36
ag9
ag14
ag19
ag21
ag14
ag44
ag23
ag8
ag16
ag16
ag14
ag5
ag38
ag13
ag8
ag22
ag8
ag6
a(lp48
I0
aI1
aI8
aag2
ag7
ag19
ag22
ag13
ag17
ag3
ag48
ag8
ag21
ag2
ag12
ag3
ag3
ag22
ag4
ag42
ag20
ag11
ag37
ag8
ag10
ag19
ag17
ag2
ag17
ag5
ag9
ag14
a(lp49
I0
aI1
aI8
aag18
ag19
ag14
ag15
ag17
ag19
ag14
ag14
ag5
ag13
ag19
ag22
ag14
ag8
ag45
ag12
ag17
ag5
ag15
ag33
ag46
ag13
ag11
ag19
ag14
ag9
ag8
ag16
ag8
ag24
ag40
ag20
ag21
ag13
ag4
ag37
ag3
ag3
ag7
ag34
ag8
ag20
ag5
ag38
ag44
ag18
ag8
ag39
ag20
ag18
ag22
ag8
ag2
ag14
ag14
ag36
ag10
ag14
ag32
ag7
ag18
ag5
ag21
ag20
ag24
ag8
ag24
ag2
ag14
ag21
ag25
ag14
ag28
ag3
ag14
ag23
ag24
ag18
ag44
ag8
ag29
ag30
ag11
ag14
ag14
ag7
ag35
ag9
ag14
ag14
ag8
ag2
ag9
ag8
ag19
ag14
ag9
ag10
ag9
ag2
ag5
ag9
ag14
ag19
ag14
ag5
ag17
ag5
ag5
ag25
ag3
a(lp50
I0
aI2
aI6
aI8
aag3
ag7
ag5
ag8
ag2
ag27
ag3
ag18
ag43
ag5
ag6
ag8
ag2
ag17
ag5
ag14
ag2
ag29
ag8
ag8
ag2
ag24
ag18
ag14
ag24
ag2
ag18
ag8
ag8
ag15
ag18
ag8
ag13
ag27
ag18
ag8
ag22
ag14
ag7
ag14
ag12
ag23
ag16
ag14
ag19
ag24
ag4
ag19
ag20
ag8
ag37
ag14
ag20
ag25
ag11
ag18
ag11
ag14
ag20
ag24
ag6
ag42
ag37
ag2
ag14
ag11
ag16
ag11
ag20
ag14
ag14
ag17
ag14
ag4
ag2
ag27
ag20
ag22
ag7
ag3
ag14
ag14
ag7
ag14
ag27
ag14
ag14
ag8
ag5
ag5
ag27
ag25
ag12
ag14
ag24
ag41
ag46
ag8
ag2
ag2
ag19
ag4
ag30
ag16
ag9
ag3
ag27
ag8
ag14
ag25
ag19
ag47
ag14
ag14
ag9
ag9
ag19
ag18
ag14
ag41
ag16
ag18
ag17
ag13
ag9
ag8
ag25
ag7
ag9
ag25
ag24
ag19
ag14
ag14
ag10
ag45
ag8
ag14
ag18
ag18
ag9
ag17
ag6
ag27
ag12
ag14
ag19
ag8
ag17
ag5
ag14
ag3
ag9
ag30
ag14
ag4
ag2
ag2
ag25
ag17
ag14
ag20
ag2
ag23
ag7
ag27
ag37
ag24
ag2
ag14
ag8
ag5
ag10
ag14
ag13
ag29
ag46
ag34
a(lp51
I1
aI2
aI4
aI5
aI6
aI7
aI8
aag41
ag12
ag14
ag2
ag9
ag24
ag29
ag15
ag37
ag14
ag43
ag11
ag7
ag8
ag15
ag21
ag24
ag43
ag23
ag22
ag15
ag2
ag8
ag22
ag21
ag13
ag16
ag8
ag10
ag6
ag14
ag8
ag46
ag2
ag9
ag8
ag2
ag14
ag5
ag6
ag17
ag7
ag2
ag42
ag14
ag17
ag9
ag8
ag10
ag8
ag12
ag34
ag3
ag14
ag14
ag20
ag25
ag6
ag8
ag2
ag2
ag27
ag6
ag19
ag19
ag16
ag14
ag44
ag7
ag2
ag14
ag8
ag15
ag16
ag4
ag2
ag19
ag14
ag14
ag50
ag24
ag5
ag14
ag23
ag18
ag17
ag14
ag16
ag4
ag14
ag12
ag8
ag18
ag15
ag46
ag27
ag7
ag13
ag18
ag9
ag21
ag8
ag14
ag14
ag14
ag9
ag28
ag5
ag14
ag5
ag18
ag22
ag8
ag2
ag8
ag17
ag7
ag19
ag14
ag19
ag41
ag18
ag35
ag9
ag13
ag14
ag22
ag32
ag18
ag8
ag47
ag8
ag18
ag14
ag8
ag14
ag18
ag18
ag9
ag19
ag2
ag14
ag22
ag19
ag8
ag8
ag9
ag36
ag14
ag13
ag19
ag8
ag2
ag14
ag13
ag12
ag13
ag18
ag10
ag7
ag9
ag8
ag8
ag14
ag14
ag14
ag2
ag20
ag7
ag44
ag14
ag18
ag14
ag9
ag17
ag13
ag7
ag6
ag24
ag27
ag2
ag8
ag15
ag23
ag8
ag7
ag14
ag19
ag22
ag5
ag14
ag25
ag25
ag37
ag16
ag9
ag27
ag17
ag4
ag16
ag5
ag25
ag14
ag6
ag22
ag45
ag14
ag14
ag20
ag14
ag8
ag17
ag21
ag22
ag20
ag17
ag18
ag21
ag8
ag15
ag50
ag49
ag24
ag31
ag20
ag8
ag11
ag14
ag18
ag25
ag7
ag10
ag6
ag2
ag17
ag3
ag8
ag5
ag14
ag9
ag10
ag20
ag28
ag7
ag46
ag8
ag14
ag9
ag2
ag8
ag20
ag9
ag8
ag20
ag6
ag24
ag18
ag24
ag19
ag14
ag19
ag18
ag9
ag5
ag18
ag14
ag17
ag14
ag13
ag22
ag14
ag22
ag12
ag8
ag15
ag39
ag32
ag6
ag6
ag14
ag19
ag18
ag44
ag5
ag9
ag13
ag8
ag14
ag22
ag19
ag46
ag14
ag7
ag8
ag7
ag22
ag35
ag29
ag14
ag14
ag5
ag14
ag20
ag38
ag18
ag30
ag6
ag18
ag6
ag6
ag6
ag7
ag8
ag20
ag5
ag6
ag17
ag23
ag6
ag9
ag14
ag14
ag14
ag3
ag8
ag19
ag24
ag14
ag14
ag15
ag15
ag8
ag8
ag14
ag21
ag32
ag12
ag4
ag24
ag19
ag7
ag13
ag17
ag8
ag12
ag13
ag14
ag29
ag27
ag5
ag9
ag2
ag17
ag17
ag16
ag14
ag14
ag10
ag13
ag4
ag14
ag14
ag19
ag18
ag20
ag19
ag8
ag18
ag18
ag8
ag2
ag4
ag14
ag14
ag45
ag24
ag7
ag18
ag18
ag8
ag20
ag3
ag13
ag13
ag19
ag11
ag14
ag11
ag10
ag3
ag17
ag19
ag43
ag2
ag13
ag5
ag16
ag13
ag19
ag19
ag26
ag3
ag14
ag22
ag25
ag14
ag7
ag24
ag21
ag14
ag14
ag5
ag3
ag20
ag22
ag10
ag8
ag5
ag14
ag8
ag20
ag20
ag20
ag8
ag6
ag15
ag22
ag3
ag14
ag24
ag14
ag15
ag7
ag8
ag17
ag24
ag14
ag37
ag8
ag9
ag29
ag41
ag5
ag6
ag16
ag13
ag14
ag14
ag20
ag2
ag5
ag3
ag12
ag20
ag5
ag19
ag19
ag27
ag35
ag6
ag7
ag13
ag19
ag2
ag37
ag24
ag19
ag19
ag5
ag22
ag8
ag23
ag5
ag44
ag32
ag16
ag43
ag15
ag3
ag14
ag24
ag8
ag25
ag9
ag20
ag8
ag37
ag14
ag14
ag14
ag14
ag14
ag14
ag12
ag18
ag24
ag18
ag14
ag13
ag18
ag19
ag14
ag17
ag14
ag8
ag5
ag9
ag40
ag45
ag19
ag18
ag27
ag13
ag2
ag19
ag19
ag44
ag14
ag23
ag34
ag8
ag11
ag8
ag30
ag16
ag51
ag19
ag14
ag5
ag20
ag11
ag20
ag8
ag8
ag7
ag13
ag8
ag8
ag14
ag14
ag27
ag18
ag7
ag8
ag37
ag30
ag8
ag19
ag24
ag18
ag17
ag14
ag18
ag19
ag8
ag13
ag30
ag17
ag17
ag11
ag3
ag8
ag5
ag24
ag8
ag18
ag8
ag18
ag9
ag14
ag24
ag13
ag14
ag14
ag15
ag14
ag8
ag14
ag8
ag3
ag11
ag15
ag23
ag17
ag16
ag8
ag22
ag8
ag8
ag20
ag43
ag20
ag14
ag37
ag14
ag3
ag8
ag12
ag4
ag14
ag47
ag8
ag19
ag8
ag18
ag29
ag19
ag31
ag7
ag9
ag21
ag9
ag24
ag19
ag2
ag18
ag7
ag19
ag4
ag14
ag18
ag22
ag14
ag18
ag16
ag47
ag22
ag14
ag36
ag18
ag8
ag19
ag19
ag17
ag17
ag19
ag16
ag14
ag48
ag13
ag18
ag14
ag8
ag16
ag25
ag14
ag22
ag6
ag15
ag20
ag22
ag14
ag4
ag5
ag2
ag14
ag20
ag20
ag14
ag8
ag8
ag6
ag7
ag8
ag7
ag8
ag14
ag20
ag43
ag8
ag21
ag9
ag7
ag14
ag11
ag18
ag27
ag8
ag35
ag23
ag23
ag3
ag8
ag3
ag8
ag14
ag14
ag13
ag7
ag50
ag3
ag3
ag14
ag18
ag18
ag4
ag34
ag8
ag33
ag30
ag27
ag5
ag22
ag14
ag16
ag7
ag7
ag14
ag22
ag2
ag10
ag6
ag19
ag18
ag14
ag8
ag21
ag41
ag7
ag7
ag14
ag15
ag32
ag39
ag8
ag24
ag10
ag40
ag14
ag16
ag11
ag8
ag14
ag8
ag18
ag3
ag8
ag18
ag50
ag14
ag14
ag2
ag21
ag6
ag18
ag22
ag9
ag19
ag37
ag26
ag14
ag24
ag8
ag12
ag8
ag12
ag14
ag8
ag20
ag18
ag24
ag2
ag19
ag19
ag27
ag2
ag8
ag40
ag8
ag18
ag18
ag14
ag18
ag15
ag30
ag10
ag43
ag44
ag8
ag21
ag21
ag14
ag14
ag21
ag13
ag51
ag14
ag14
ag14
ag8
ag10
ag14
ag9
ag8
ag7
ag14
ag14
ag19
ag6
ag17
ag8
ag2
ag14
ag19
ag18
ag37
ag20
ag20
ag8
ag24
ag15
ag14
ag7
ag14
ag10
ag8
ag7
ag8
ag41
ag43
ag14
ag2
ag18
ag23
ag14
ag14
ag23
ag20
ag18
ag4
ag2
ag38
ag14
ag5
ag20
ag40
ag8
ag5
ag11
ag14
ag25
ag14
ag20
ag12
ag6
ag7
ag10
ag19
ag18
ag9
ag41
ag13
ag14
ag23
ag6
ag8
ag15
ag9
ag14
ag3
ag2
ag14
ag2
ag14
ag20
ag23
ag9
ag14
ag22
ag48
ag14
ag29
ag6
ag18
ag13
ag29
ag3
ag23
ag19
ag34
ag18
ag6
ag20
ag14
ag20
ag41
ag17
ag18
ag19
ag8
ag5
ag20
ag24
ag5
ag13
ag2
ag6
ag20
ag30
ag14
ag13
ag50
ag17
ag20
ag8
ag15
ag14
ag7
ag17
ag13
ag27
ag11
ag49
ag24
ag24
ag20
ag4
ag14
ag25
ag14
ag14
ag20
ag8
ag9
ag19
ag8
ag5
ag20
ag12
ag8
ag18
ag5
ag34
ag23
ag13
ag22
ag14
ag20
ag20
ag18
ag3
ag14
ag42
ag8
ag14
ag14
ag21
ag39
ag3
ag40
ag15
ag31
ag27
ag19
ag14
ag10
ag44
ag14
ag14
ag22
ag5
ag17
ag5
ag37
ag8
ag14
ag3
ag24
ag13
ag9
ag20
ag39
ag18
ag18
ag19
ag24
ag5
ag19
ag19
ag18
ag14
ag37
ag2
ag3
ag22
ag24
ag14
ag6
ag14
ag14
ag14
ag17
ag14
ag4
ag34
ag19
ag2
ag19
ag23
ag15
ag19
ag9
ag10
ag7
ag8
ag43
ag19
ag50
ag8
ag9
ag30
ag22
ag48
ag8
ag2
ag8
ag17
ag3
ag18
ag37
ag6
ag14
ag40
ag8
ag14
ag8
ag34
ag11
ag14
ag8
ag8
ag14
ag2
ag42
ag46
ag25
ag9
ag15
ag16
ag40
ag19
ag43
ag22
ag22
ag8
ag27
ag14
ag19
ag9
ag19
ag3
ag21
ag19
ag8
ag16
ag15
ag19
ag22
ag23
ag24
ag19
ag17
ag18
ag14
ag8
ag25
ag14
ag24
ag25
ag2
ag15
ag14
ag10
ag2
ag8
ag19
ag18
ag14
ag14
ag5
ag8
ag21
ag25
ag13
ag24
ag14
ag13
ag14
ag3
ag8
ag19
ag11
ag19
ag7
ag13
ag23
ag3
ag19
ag4
ag3
ag22
ag14
ag13
ag4
ag14
ag17
ag31
ag19
ag2
ag27
ag14
ag24
ag22
ag6
ag17
ag27
ag15
ag19
ag6
ag8
ag17
ag25
ag22
ag4
ag10
ag6
ag9
ag7
ag4
ag7
ag14
ag6
ag14
ag2
ag8
ag14
ag19
ag3
ag3
ag8
ag14
ag14
ag8
ag12
ag15
ag14
ag2
ag8
ag14
ag14
ag8
ag14
ag6
ag8
ag22
ag7
ag17
ag14
ag13
ag21
ag3
ag27
ag4
ag14
ag22
ag5
ag3
ag6
ag19
ag37
ag22
ag21
ag32
ag17
ag17
ag23
ag14
ag20
ag2
ag46
ag14
ag9
ag22
ag18
ag17
ag3
ag3
ag6
ag8
ag8
ag8
ag6
ag3
ag8
ag42
ag19
ag24
ag17
ag23
ag10
ag8
ag22
ag19
ag8
ag3
ag19
ag8
ag10
ag14
ag8
ag33
ag14
ag14
ag5
ag14
ag8
ag14
ag19
ag29
ag8
ag19
ag46
ag19
ag14
ag8
ag3
ag18
ag19
ag37
ag14
ag9
ag18
ag18
ag18
ag13
ag27
ag14
ag13
ag25
ag13
ag8
ag19
ag13
ag14
ag6
ag14
ag13
ag27
ag18
ag14
ag2
ag20
ag14
ag3
ag13
ag9
ag17
ag37
ag27
ag14
ag37
ag5
ag19
ag14
ag19
ag20
ag16
ag8
ag20
ag25
ag14
ag18
ag10
ag12
ag18
ag7
ag19
ag32
ag20
ag13
ag10
ag8
ag20
ag20
ag18
ag34
ag17
ag41
ag34
ag24
ag23
ag32
ag48
ag14
ag19
ag14
ag8
ag4
ag44
ag7
ag8
ag22
ag8
ag3
ag8
ag11
ag12
ag5
ag14
ag8
ag2
ag14
ag20
ag19
ag8
ag24
ag9
ag9
ag14
ag25
ag5
ag27
ag24
ag12
ag8
ag7
ag2
ag27
ag24
ag8
ag9
ag19
ag10
ag9
ag9
ag14
ag38
ag27
ag19
ag10
ag3
ag8
ag7
ag18
ag7
ag50
ag7
ag30
ag13
ag25
ag14
ag46
ag14
ag3
ag16
ag14
ag21
ag7
ag14
ag8
ag39
ag16
ag2
ag9
ag5
ag37
ag47
ag30
ag8
ag8
ag14
ag19
ag7
ag14
ag11
ag5
ag8
ag27
ag13
ag21
ag17
ag9
ag14
ag14
ag14
ag18
ag8
ag11
ag10
ag6
ag7
ag24
ag14
ag2
ag25
ag8
ag8
ag17
ag40
ag8
ag14
ag14
ag23
ag19
ag14
ag27
ag14
ag5
ag15
ag8
ag37
ag18
ag8
ag14
ag19
ag18
ag8
ag20
ag19
ag7
ag8
ag7
ag7
ag10
ag40
ag27
ag24
ag14
ag8
ag21
ag47
ag19
ag14
ag8
ag14
ag28
ag7
ag8
ag18
ag14
ag7
ag8
ag25
ag24
ag8
ag14
ag14
ag22
ag24
ag14
ag33
ag33
ag5
ag14
ag37
ag50
ag8
ag18
ag7
ag23
ag18
ag22
ag5
ag17
ag33
ag18
ag17
ag49
ag37
ag30
ag19
ag10
ag9
ag8
ag25
ag14
ag50
ag8
ag19
ag23
ag3
ag9
ag9
ag15
ag14
ag32
ag46
ag49
ag14
ag7
ag11
ag2
ag13
ag27
ag2
ag9
ag8
ag46
ag14
ag51
ag7
ag43
ag22
ag18
ag17
ag6
ag18
ag13
ag13
ag3
ag22
ag8
ag24
ag3
ag18
ag25
ag8
ag3
ag2
ag2
ag7
ag43
ag3
ag24
ag19
ag8
ag15
ag2
ag4
ag2
ag18
ag6
ag7
ag14
ag6
ag24
ag14
ag8
ag8
ag14
ag9
ag4
ag10
ag9
ag2
ag4
ag50
ag8
ag14
ag32
ag20
ag19
ag8
ag20
ag48
ag19
ag6
ag14
ag3
ag4
ag14
ag18
ag8
ag2
ag8
ag23
ag5
ag14
ag14
ag7
ag11
ag14
ag2
ag13
ag25
ag8
ag29
ag3
ag22
ag17
ag9
ag20
ag15
ag27
ag5
ag8
ag15
ag41
ag6
ag13
ag24
ag17
ag20
ag20
ag30
ag3
ag17
ag14
ag7
ag25
ag20
ag17
ag7
ag7
ag10
ag19
ag3
ag20
ag8
ag36
ag8
ag17
ag18
ag18
ag18
ag13
ag12
ag25
ag14
ag18
ag14
ag10
ag14
ag14
ag11
ag13
ag13
ag14
ag7
ag16
ag29
ag14
ag13
ag14
ag6
ag28
ag2
ag5
ag14
ag25
ag22
ag19
ag14
ag22
ag3
ag13
ag20
ag14
ag20
ag24
ag7
ag5
ag7
ag6
ag8
ag14
ag13
ag14
ag7
ag50
ag9
ag22
ag23
ag14
ag2
ag13
ag19
ag46
ag8
ag14
ag4
ag8
ag14
ag20
ag5
ag20
ag17
ag42
ag7
ag20
ag5
ag15
ag29
ag2
ag19
ag14
ag14
ag33
ag18
ag8
ag4
ag42
ag14
ag8
ag14
ag8
ag11
ag2
ag13
ag5
ag4
ag14
ag5
ag19
ag20
ag8
ag18
ag14
ag17
ag5
ag21
ag17
ag20
ag51
ag33
ag33
ag14
ag14
ag19
ag5
ag4
ag9
ag14
ag9
ag51
ag18
ag21
ag19
ag14
ag24
ag26
ag8
ag19
ag18
ag14
ag15
ag14
ag5
ag3
ag19
ag17
ag3
ag17
ag14
ag15
ag14
ag14
ag7
ag45
ag5
ag10
ag9
ag14
ag4
ag14
ag14
ag18
ag12
ag20
ag20
ag24
ag22
ag14
ag3
ag25
ag22
ag14
ag6
ag23
ag9
ag4
ag14
ag14
ag8
ag14
ag8
ag8
ag7
ag8
ag20
ag19
ag8
ag21
ag19
ag23
ag19
ag19
ag4
ag13
ag14
ag18
ag14
ag8
ag17
ag14
ag17
ag22
ag11
ag14
ag5
ag19
ag5
ag14
ag18
ag14
ag7
ag14
ag18
ag14
ag8
ag18
ag14
ag31
ag2
ag20
ag22
ag4
ag18
ag14
ag49
ag14
ag4
ag37
ag10
ag9
ag36
ag5
ag3
ag5
ag16
ag8
ag7
ag17
ag13
ag7
ag14
ag7
ag3
ag2
ag32
ag9
ag32
ag19
ag4
ag14
ag8
ag51
ag18
ag14
ag17
ag13
ag18
ag14
ag14
ag7
ag8
ag25
ag20
ag24
ag18
ag14
ag7
ag19
ag14
ag7
ag17
ag2
ag7
ag8
ag19
ag33
ag4
ag18
ag19
ag7
ag13
ag14
ag14
ag7
ag14
ag8
ag37
ag6
ag16
ag14
ag19
ag3
ag19
ag22
ag30
ag8
ag14
ag23
ag13
ag24
ag8
ag14
ag43
ag7
ag22
ag24
ag5
ag27
ag44
ag2
ag30
ag8
ag28
ag5
ag14
ag17
ag14
ag18
ag2
ag30
ag22
ag19
ag8
ag2
ag23
ag18
ag35
ag14
ag14
ag16
ag20
ag13
ag3
ag14
ag14
ag21
ag18
ag17
ag20
ag2
ag15
ag14
ag11
ag2
ag20
ag8
ag14
ag8
ag18
ag8
ag14
ag45
ag20
ag14
ag8
ag13
ag45
ag14
ag11
ag5
ag14
ag13
ag36
ag2
ag18
ag2
ag10
ag19
ag51
ag10
ag2
ag14
ag21
ag19
ag8
ag22
ag2
ag3
ag2
ag11
ag9
ag20
ag14
ag15
ag2
ag2
ag18
ag3
ag10
ag14
ag8
ag42
ag18
ag7
ag19
ag8
ag8
ag19
ag21
ag5
ag11
ag37
ag14
ag33
ag8
ag5
ag20
ag2
ag13
ag12
ag41
ag27
ag19
ag8
ag17
ag18
ag2
ag14
ag14
ag7
ag2
ag18
ag14
ag10
ag22
ag2
ag21
ag14
ag7
ag21
ag2
ag2
ag14
ag22
ag6
ag7
ag5
ag18
ag8
ag13
ag8
ag17
ag8
ag3
ag20
ag20
ag6
ag38
ag14
ag2
ag16
ag2
ag5
ag14
ag32
ag35
ag43
ag24
ag5
ag8
ag22
ag14
ag3
ag17
ag17
ag8
ag8
ag8
ag2
ag8
ag18
ag27
ag4
ag15
ag14
ag8
ag8
ag21
ag14
ag8
ag9
ag2
ag17
ag18
ag7
ag14
ag18
ag14
ag19
ag20
ag14
ag21
ag17
ag7
ag3
ag30
ag50
ag20
ag14
ag14
ag19
ag25
ag8
ag19
ag30
ag18
ag11
ag6
ag16
ag33
ag30
ag20
ag17
ag19
ag4
ag37
ag30
ag8
ag8
ag24
ag3
ag25
ag12
ag3
ag19
ag27
ag18
ag9
ag14
ag18
ag20
ag8
ag4
ag6
ag8
ag51
ag14
ag14
ag14
ag9
ag19
ag40
ag5
ag14
ag18
ag14
ag19
ag14
ag24
ag29
ag17
ag40
ag5
ag20
ag3
ag8
ag14
ag17
ag14
ag14
ag19
ag4
ag25
ag6
ag32
ag4
ag14
ag3
ag3
ag7
ag2
ag9
ag38
ag2
ag4
ag18
ag37
ag9
ag16
ag7
ag20
ag25
ag8
ag22
ag24
ag14
ag19
ag17
ag24
ag15
ag19
ag2
ag23
ag19
ag22
ag19
ag9
ag6
ag13
ag22
ag29
ag8
ag14
ag4
ag14
ag18
ag14
ag18
ag47
ag4
ag14
ag18
ag16
ag4
ag18
ag24
ag21
ag3
ag18
ag37
ag14
ag13
ag14
ag20
ag7
ag25
ag5
ag19
ag12
ag11
ag8
ag14
ag24
ag50
ag2
ag6
ag7
ag44
ag2
ag5
ag14
ag44
ag14
ag15
ag19
ag14
ag17
ag20
ag5
ag14
ag30
ag8
ag13
ag20
ag18
ag37
ag8
ag14
ag10
ag21
ag14
ag5
ag7
ag19
ag19
ag20
ag8
ag14
ag20
ag14
ag8
ag6
ag5
ag14
ag24
ag15
ag14
ag14
ag17
ag19
ag6
ag8
ag44
ag15
ag27
ag8
ag17
ag15
ag17
ag47
ag6
ag4
ag26
ag2
ag8
ag4
ag15
ag8
ag11
ag14
ag8
ag22
ag14
ag22
ag9
ag8
ag8
ag2
ag2
ag2
ag25
ag5
ag22
ag13
ag4
ag11
ag39
ag8
ag9
ag18
ag8
ag47
ag22
ag7
ag29
ag14
ag18
ag24
ag7
ag14
ag5
ag19
ag20
ag29
ag22
ag5
ag20
ag18
ag7
ag14
ag14
ag17
ag11
ag13
ag4
ag6
ag23
ag17
ag18
ag16
ag23
ag14
ag22
ag19
ag24
ag14
ag8
ag36
ag8
ag12
ag30
ag8
ag8
ag32
ag9
ag13
ag10
ag14
ag19
ag14
ag14
ag19
ag14
ag12
ag16
ag13
ag8
ag8
ag23
ag4
ag2
ag22
ag24
ag2
ag14
ag9
ag12
ag49
ag14
ag14
ag18
ag12
ag14
ag25
ag19
ag15
ag38
ag35
ag9
ag37
ag14
ag19
ag11
ag7
ag14
ag25
ag41
ag14
ag8
ag8
ag2
ag5
ag20
ag23
ag14
ag5
ag7
ag10
ag5
ag18
ag33
ag22
ag3
ag5
ag14
ag8
ag10
ag3
ag16
ag19
ag17
ag21
ag23
ag38
ag5
ag4
ag14
ag14
ag17
ag8
ag20
ag3
ag19
ag13
ag20
ag7
ag14
ag42
ag41
ag18
ag18
ag47
ag18
ag15
ag5
ag37
ag8
ag2
ag8
ag18
ag46
ag5
ag3
ag9
ag5
ag14
ag22
ag4
ag16
ag19
ag21
ag8
ag40
ag14
ag14
ag14
ag8
ag16
ag14
ag8
ag10
ag8
ag41
ag17
ag10
ag9
ag8
ag22
ag20
ag20
ag5
ag7
ag5
ag15
ag14
ag42
ag14
ag5
ag14
ag27
ag2
ag29
ag29
ag30
ag18
ag50
ag13
ag14
ag20
ag20
ag37
ag14
ag6
ag23
ag18
ag10
ag18
ag17
ag7
ag20
ag2
ag7
ag14
ag18
ag9
ag14
ag8
ag8
ag18
ag3
ag22
ag18
ag11
ag18
ag14
ag14
ag25
ag14
ag22
ag8
ag14
ag18
ag34
ag20
ag13
ag24
ag22
ag23
ag36
ag14
ag14
ag22
ag8
ag20
ag5
ag7
ag14
ag7
ag37
ag17
ag7
ag21
ag23
ag14
ag24
ag8
ag2
ag9
ag23
ag14
ag8
ag7
ag20
ag4
ag42
ag44
ag26
ag2
ag5
ag18
ag19
ag8
ag24
ag8
ag8
ag8
ag15
ag8
ag6
ag2
ag8
ag22
ag8
ag19
ag22
ag4
ag32
ag37
ag17
ag36
ag22
ag8
ag27
ag14
ag14
ag14
ag14
ag21
ag39
ag5
ag12
ag21
ag14
ag46
ag43
ag7
ag49
ag6
ag25
ag9
ag11
ag2
ag8
ag15
ag18
ag14
ag14
ag6
ag2
ag7
ag17
ag32
ag2
ag17
ag14
ag11
ag18
ag23
ag32
ag8
ag19
ag8
ag14
ag8
ag4
ag14
ag28
ag11
ag19
ag5
ag43
ag5
ag8
ag14
ag18
ag48
ag43
ag11
ag15
ag2
ag2
ag16
ag18
ag6
ag20
ag15
ag5
ag48
ag19
ag19
ag8
ag14
ag18
ag10
ag18
ag17
ag8
ag20
ag17
ag33
ag10
ag14
ag4
ag2
ag14
ag8
ag18
ag2
ag3
ag14
ag19
ag8
ag44
ag8
ag19
ag8
ag17
ag5
ag8
ag20
ag20
ag14
ag34
ag11
ag9
ag25
ag20
ag19
ag22
ag44
ag8
ag11
ag19
ag8
ag6
ag19
ag37
ag14
ag15
ag14
ag5
ag14
ag14
ag4
ag21
ag14
ag8
ag13
ag9
ag22
ag6
ag14
ag19
ag10
ag18
ag14
ag19
ag23
ag8
ag14
ag24
ag14
ag30
ag21
ag4
ag14
ag6
ag32
ag5
ag14
ag20
ag3
ag14
ag27
ag22
ag24
ag17
ag11
ag25
ag6
ag19
ag11
ag29
ag25
ag24
ag7
ag14
ag2
ag14
ag14
ag14
ag24
ag8
ag9
ag23
ag14
ag13
ag11
ag16
ag34
ag8
ag20
ag8
ag24
ag24
ag8
ag10
ag20
ag29
ag2
ag21
ag18
ag20
ag22
ag21
ag6
ag8
ag2
ag9
ag13
ag19
ag17
ag5
ag3
ag9
ag20
ag21
ag23
ag25
ag9
ag32
ag14
ag20
ag17
ag14
ag16
ag14
ag21
ag8
ag14
ag5
ag21
ag2
ag19
ag13
ag32
ag10
ag5
ag30
ag14
ag18
ag18
ag18
ag4
ag24
ag15
ag37
ag43
ag9
ag12
ag18
ag5
ag33
ag7
ag14
ag25
ag14
ag8
ag18
ag14
ag5
ag19
ag9
ag46
ag14
ag12
ag35
ag14
ag11
ag18
ag7
ag2
ag18
ag2
ag2
ag50
ag15
ag38
ag13
ag10
ag14
ag25
ag17
ag14
ag27
ag15
ag17
ag22
ag19
ag8
ag43
ag14
ag19
ag17
ag36
ag8
ag35
ag11
ag24
ag3
ag8
ag13
ag12
ag13
ag12
ag9
ag22
ag13
ag2
ag4
ag11
ag15
ag20
ag19
ag2
ag7
ag23
ag5
ag8
ag14
ag15
ag19
ag22
ag13
ag6
ag8
ag3
ag3
ag20
ag21
ag5
ag8
ag14
ag13
ag15
ag18
ag14
ag14
ag14
ag50
ag14
ag14
ag14
ag8
ag22
ag34
ag8
ag20
ag8
ag14
ag33
ag8
ag6
ag7
ag18
ag22
ag14
ag39
ag47
ag14
ag14
ag20
ag2
ag16
ag22
ag15
ag20
ag14
ag27
ag8
ag35
ag8
ag10
ag12
ag18
ag2
ag20
ag6
ag10
ag19
ag15
ag20
ag27
ag24
ag14
ag30
ag27
ag21
ag17
ag12
ag18
ag19
ag14
ag14
ag32
ag8
ag24
ag13
ag5
ag50
ag32
ag5
ag19
ag4
ag14
ag40
ag14
ag8
ag14
ag33
ag8
ag6
ag22
ag13
ag5
ag14
ag21
ag25
ag17
ag34
ag16
ag8
ag23
ag14
ag24
ag14
ag18
ag8
ag8
ag8
ag18
ag20
ag14
ag5
ag17
ag25
ag45
ag18
ag7
ag14
ag14
ag17
ag9
ag18
ag37
ag2
ag14
ag18
ag7
ag19
ag7
ag38
ag8
ag3
ag16
ag7
ag7
ag42
ag8
ag24
ag13
ag22
ag3
ag8
ag4
ag22
ag14
ag22
ag8
ag17
ag20
ag14
ag29
ag27
ag14
ag8
ag14
ag14
ag38
ag15
ag5
ag11
ag24
ag32
ag19
ag13
ag2
ag7
ag18
ag17
ag14
ag20
ag32
ag19
ag14
ag37
ag10
ag23
ag5
ag20
ag17
ag14
ag18
ag38
ag14
ag14
ag5
ag16
ag18
ag3
ag7
ag42
ag8
ag8
ag32
ag22
ag24
ag19
ag24
ag20
ag19
ag5
ag18
ag7
ag19
ag18
ag18
ag22
ag7
ag6
ag3
ag19
ag2
ag6
ag47
ag14
ag36
ag21
ag18
ag14
ag14
ag19
ag14
ag23
ag18
ag8
ag13
ag7
ag7
ag8
ag4
ag8
ag22
ag22
ag19
ag15
ag18
ag22
ag2
ag19
ag17
ag34
ag5
ag14
ag47
ag3
ag14
ag14
ag8
ag19
ag8
ag13
ag17
ag21
ag15
ag6
ag3
ag8
ag24
ag46
ag2
ag14
ag18
ag7
ag38
ag8
ag7
ag8
ag14
ag24
ag18
ag33
ag29
ag10
ag19
ag14
ag29
ag16
ag19
ag15
ag19
ag8
ag19
ag14
ag22
ag8
ag18
ag37
ag10
ag45
ag2
ag11
ag14
ag18
ag32
ag8
ag8
ag13
ag39
ag40
ag32
ag5
ag36
ag8
ag5
ag8
ag19
ag14
ag2
ag8
ag28
ag14
ag9
ag29
ag2
ag14
ag9
ag30
ag14
ag2
ag14
ag18
ag31
ag18
ag15
ag14
ag39
ag20
ag40
ag2
ag15
ag23
ag14
ag7
ag27
ag23
ag8
ag23
ag14
ag25
ag5
ag12
ag39
ag19
ag14
ag14
ag17
ag25
ag14
ag19
ag14
ag7
ag24
ag20
ag20
ag15
ag6
ag18
ag18
ag15
ag22
ag22
ag7
ag9
ag27
ag15
ag22
ag21
ag3
ag23
ag22
ag14
ag35
ag39
ag6
ag14
ag20
ag18
ag6
ag28
ag14
ag10
ag14
ag28
ag6
ag14
ag6
ag14
ag8
ag30
ag8
ag8
ag7
ag19
ag14
ag11
ag5
ag14
ag11
ag13
ag8
ag19
ag25
ag8
ag14
ag7
ag5
ag4
ag3
ag30
ag30
ag18
ag17
ag2
ag8
ag14
ag8
ag3
ag14
ag23
ag8
ag14
ag7
ag44
ag31
ag18
ag9
ag36
ag8
ag14
ag22
ag37
ag18
ag22
ag8
ag18
ag7
ag14
ag8
ag8
ag23
ag7
ag12
ag14
ag14
ag14
ag24
ag3
ag8
ag14
ag14
ag13
ag12
ag23
ag22
ag18
ag18
ag14
ag2
ag17
ag23
ag30
ag2
ag24
ag10
ag20
ag8
ag2
ag7
ag21
ag19
ag43
ag19
ag8
ag8
ag5
ag18
ag8
ag28
ag9
ag8
ag14
ag18
ag19
ag4
ag39
ag4
ag2
ag8
ag19
ag30
ag20
ag7
ag32
ag17
ag3
ag17
ag12
ag18
ag5
ag12
ag8
ag4
ag11
ag19
ag8
ag8
ag2
ag43
ag19
ag14
ag8
ag22
ag19
ag19
ag20
ag5
ag8
ag50
ag9
ag8
ag10
ag14
ag2
ag14
ag29
ag20
ag16
ag6
ag16
ag32
ag40
ag41
ag8
ag13
ag11
ag32
ag14
ag14
ag10
ag12
ag4
ag8
ag14
ag24
ag5
ag14
ag2
ag8
ag5
ag14
ag7
ag32
ag15
ag18
ag23
ag15
ag2
ag22
ag3
ag8
ag14
ag13
ag42
ag8
ag25
ag17
ag43
ag10
ag13
ag14
ag3
ag14
ag5
ag46
ag17
ag19
ag25
ag23
ag19
ag14
ag22
ag14
ag25
ag23
ag5
ag8
ag48
ag24
ag32
ag7
ag8
ag2
ag14
ag19
ag17
ag8
ag2
ag46
ag6
ag14
ag3
ag17
ag20
ag2
ag17
ag46
ag19
ag13
ag14
ag32
ag24
ag22
ag6
ag8
ag14
ag8
ag37
ag41
ag2
ag19
ag17
ag12
ag32
ag18
ag23
ag19
ag33
ag19
ag7
ag19
ag9
ag8
ag8
ag14
ag22
ag2
ag17
ag2
ag20
ag25
ag21
ag3
ag13
ag22
ag27
ag2
ag20
ag23
ag20
ag14
ag13
ag19
ag14
ag44
ag14
ag8
ag8
ag14
ag22
ag13
ag8
ag14
ag27
ag14
ag3
ag14
ag20
ag14
ag24
ag24
ag8
ag18
ag6
ag3
ag24
ag4
ag2
ag22
ag27
ag25
ag14
ag14
ag20
ag8
ag19
ag24
ag11
ag5
ag14
ag19
ag44
ag14
ag32
ag15
ag11
ag11
ag45
ag13
ag3
ag45
ag24
ag23
ag14
ag8
ag3
ag5
ag14
ag19
ag4
ag15
ag8
ag3
ag8
ag37
ag37
ag14
ag17
ag9
ag25
ag14
ag7
ag14
ag5
ag25
ag24
ag18
ag14
ag3
ag18
ag30
ag37
ag22
ag7
ag2
ag12
ag2
ag14
ag14
ag6
ag8
ag14
ag5
ag41
ag14
ag17
ag24
ag18
ag51
ag8
ag33
ag50
ag21
ag8
ag5
ag8
ag7
ag35
ag13
ag19
ag8
ag13
ag38
ag14
ag8
ag51
ag14
ag14
ag8
ag22
ag9
ag14
ag8
ag5
ag17
ag50
ag24
ag19
ag19
ag7
ag14
ag8
ag14
ag6
ag14
ag18
ag2
ag23
ag25
ag17
ag14
ag14
ag2
ag5
ag27
ag11
ag8
ag18
ag20
ag3
ag12
ag18
ag14
ag13
ag4
ag8
ag51
ag17
ag6
ag14
ag14
ag18
ag24
ag5
ag19
ag10
ag8
ag33
ag18
ag11
ag11
ag9
ag7
ag14
ag18
ag14
ag8
ag8
ag14
ag14
ag5
ag8
ag8
ag27
ag9
ag34
ag14
ag14
ag19
ag18
ag14
ag20
ag14
ag24
ag18
ag27
ag7
ag8
ag7
ag34
ag38
ag33
ag8
ag13
ag24
ag17
ag24
ag4
ag28
ag45
ag17
ag20
ag24
ag14
ag6
ag14
ag7
ag18
ag5
ag46
ag5
ag19
ag8
ag12
ag22
ag8
ag17
ag9
ag15
ag22
ag14
ag4
ag12
ag8
ag14
ag40
ag9
ag44
ag6
ag24
ag18
ag25
ag8
ag8
ag19
ag8
ag19
ag8
ag37
ag20
ag25
ag5
ag7
ag27
ag37
ag43
ag14
ag19
ag18
ag21
ag19
ag14
ag30
ag8
ag17
ag14
ag16
ag22
ag12
ag14
ag5
ag37
ag14
ag24
ag19
ag14
ag24
ag9
ag33
ag38
ag19
ag27
ag8
ag19
ag10
ag18
ag6
ag3
ag43
ag8
ag3
ag5
ag10
ag18
ag30
ag12
ag19
ag3
ag13
ag18
ag5
ag22
ag2
ag14
ag14
ag8
ag14
ag46
ag8
ag8
ag22
ag18
ag14
ag5
ag5
ag18
ag8
ag3
ag24
ag8
ag14
ag8
ag14
ag15
ag14
ag8
ag15
ag14
ag8
ag47
ag8
ag15
ag6
ag5
ag8
ag23
ag3
ag4
ag14
ag19
ag8
ag21
ag27
ag19
ag18
ag18
ag44
ag19
ag6
ag8
ag30
ag14
ag10
ag9
ag23
ag19
ag14
ag6
ag8
ag6
ag4
ag49
ag8
ag18
ag8
ag20
ag19
ag17
ag4
ag2
ag23
ag13
ag2
ag14
ag29
ag47
ag14
ag2
ag5
ag18
ag48
ag19
ag24
ag14
ag9
ag19
ag18
ag2
ag22
ag14
ag24
ag8
ag6
ag14
ag7
ag43
ag18
ag8
ag17
ag7
ag10
ag8
ag8
ag11
ag8
ag25
ag5
ag13
ag19
ag14
ag16
ag43
ag13
ag5
ag30
ag3
ag16
ag7
ag18
ag47
ag8
ag5
ag32
ag8
ag7
ag35
ag14
ag9
ag15
ag27
ag10
ag12
ag14
ag3
ag22
ag9
ag34
ag7
ag24
ag22
ag2
ag8
ag5
ag6
ag7
ag25
ag10
ag15
ag2
ag19
ag2
ag14
ag20
ag40
ag8
ag15
ag8
ag18
ag20
ag8
ag24
ag7
ag5
ag14
ag19
ag46
ag8
ag8
ag33
ag14
ag18
ag14
ag18
ag32
ag8
ag8
ag41
ag14
ag9
ag14
ag25
ag9
ag14
ag19
ag12
ag4
ag14
ag5
ag18
ag18
ag11
ag5
ag13
ag12
ag11
ag23
ag37
ag13
ag5
ag8
ag8
ag2
ag14
ag14
ag25
ag5
ag14
ag8
ag6
ag8
ag39
ag8
ag22
ag12
ag15
ag18
ag5
ag44
ag8
ag47
ag3
ag18
ag18
ag24
ag13
ag7
ag8
ag25
ag46
ag2
ag4
ag51
ag2
ag9
ag8
ag13
ag14
ag32
ag17
ag3
ag24
ag9
ag17
ag17
ag4
ag2
ag14
ag22
ag8
ag17
ag13
ag14
ag46
ag38
ag15
ag5
ag14
ag14
ag19
ag18
ag12
ag21
ag33
ag10
ag14
ag17
ag14
ag11
ag14
ag7
ag5
ag16
ag9
ag14
ag15
ag29
ag14
ag18
ag12
ag14
ag16
ag9
ag19
ag19
ag15
ag22
ag14
ag20
ag21
ag5
ag2
ag37
ag22
ag8
ag33
ag3
ag4
ag14
ag15
ag18
ag30
ag19
ag14
ag14
ag6
ag24
ag19
ag24
ag9
ag7
ag8
ag8
ag28
ag14
ag4
ag7
ag20
ag20
ag5
ag13
ag43
ag20
ag43
ag3
ag40
ag18
ag15
ag14
ag6
ag5
ag16
ag17
ag19
ag14
ag2
ag5
ag44
ag4
ag14
ag17
ag8
ag22
ag17
ag19
ag14
ag19
ag17
ag24
ag8
ag28
ag13
ag5
ag8
ag6
ag14
ag44
ag5
ag3
ag17
ag8
ag8
ag8
ag5
ag29
ag9
ag49
ag14
ag21
ag2
ag5
ag13
ag2
ag14
ag18
ag24
ag8
ag18
ag8
ag12
ag8
ag21
ag14
ag3
ag2
ag10
ag8
ag14
ag19
ag18
ag5
ag2
ag3
ag8
ag4
ag41
ag15
ag37
ag14
ag7
ag4
ag19
ag19
ag22
ag18
ag10
ag2
ag8
ag12
ag6
ag8
ag8
ag43
ag13
ag8
ag22
ag22
ag11
ag19
ag14
ag3
ag9
ag2
ag47
ag20
ag14
ag9
ag7
ag27
ag24
ag18
ag14
ag14
ag18
ag50
ag8
ag37
ag19
ag20
ag8
ag22
ag20
ag14
ag44
ag33
ag8
ag22
ag7
ag8
ag8
ag19
ag8
ag18
ag7
ag18
ag24
ag5
ag35
ag14
ag24
ag17
ag14
ag2
ag14
ag24
ag9
ag6
ag6
ag10
ag45
ag14
ag16
ag32
ag21
ag2
ag10
ag5
ag12
ag17
ag20
ag14
ag14
ag14
ag6
ag22
ag22
ag17
ag12
ag19
ag19
ag4
ag20
ag5
ag19
ag9
ag20
ag3
ag14
ag18
ag5
ag5
ag10
ag9
ag40
ag9
ag9
ag18
ag12
ag14
ag51
ag18
ag19
ag7
ag19
ag4
ag8
ag20
ag2
ag45
ag34
ag14
ag48
ag8
ag7
ag29
ag8
ag5
ag19
ag14
ag39
ag14
ag14
ag18
ag9
ag7
ag14
ag22
ag7
ag13
ag7
ag8
ag22
ag42
ag14
ag18
ag19
ag17
ag29
ag14
ag3
ag14
ag24
ag13
ag24
ag16
ag33
ag12
ag24
ag8
ag19
ag23
ag14
ag8
ag23
ag3
ag18
ag7
ag27
ag6
ag19
ag5
ag17
ag3
ag14
ag32
ag20
ag7
ag12
ag14
ag8
ag8
ag7
ag18
ag14
ag7
ag14
ag6
ag19
ag29
ag10
ag20
ag5
ag19
ag8
ag19
ag14
ag7
ag44
ag13
ag13
ag6
ag6
ag4
ag22
ag3
ag2
ag13
ag14
ag8
ag20
ag18
ag14
ag3
ag14
ag8
ag14
ag37
ag18
ag9
ag37
ag14
ag8
ag8
ag24
ag19
ag3
ag21
ag8
ag19
ag20
ag25
ag11
ag7
ag20
ag2
ag18
ag37
ag12
ag32
ag7
ag13
ag8
ag9
ag18
ag21
ag6
ag17
ag8
ag17
ag18
ag8
ag14
ag6
ag8
ag14
ag45
ag20
ag2
ag14
ag14
ag11
ag14
ag8
ag19
ag5
ag14
ag19
ag14
ag20
ag13
ag8
ag19
ag8
ag46
ag22
ag8
ag7
ag18
ag14
ag22
ag43
ag5
ag18
ag8
ag5
ag28
ag4
ag9
ag18
ag8
ag8
ag14
ag18
ag18
ag7
ag14
ag18
ag29
ag7
ag2
ag19
ag25
ag18
ag8
ag42
ag8
ag2
ag14
ag25
ag12
ag19
ag23
ag8
ag8
ag7
ag20
ag2
ag3
ag14
ag14
ag8
ag14
ag2
ag18
ag24
ag7
ag16
ag14
ag14
ag18
ag9
ag3
ag20
ag8
ag5
ag21
ag14
ag22
ag14
ag19
ag18
ag33
ag14
ag19
ag3
ag8
ag25
ag8
ag20
ag14
ag8
ag8
ag25
ag17
ag5
ag22
ag2
ag22
ag37
ag18
ag3
ag19
ag18
ag5
ag14
ag3
ag3
ag4
ag13
ag16
ag2
ag10
ag8
ag14
ag14
ag20
ag13
ag8
ag7
ag8
ag4
ag9
ag15
ag8
ag27
ag17
ag5
ag9
ag14
ag4
ag2
ag28
ag8
ag6
ag2
ag19
ag19
ag30
ag20
ag9
ag21
ag20
ag8
ag30
ag8
ag4
ag13
ag3
ag14
ag19
ag19
ag5
ag14
ag8
ag8
a.