(dp1
I3
(lp2
I0
aI8
asI4
(lp3
I1
aI2
aI4
aI5
aI6
asI5
(lp4
I1
aI2
aI4
aI5
aI6
aI7
asI6
(lp5
I0
aI1
aI6
aI8
asI7
(lp6
I0
aI1
aI8
asI8
(lp7
I1
aI2
aI4
aI5
aI6
aI7
asI9
(lp8
I1
aI2
aI4
aI5
aI6
aI7
asI12
(lp9
I1
aI2
aI4
aI5
aI6
asI13
(lp10
I3
aI6
aI8
asI14
(lp11
I0
aI3
aI8
asI16
(lp12
I1
aI2
aI4
aI5
aI6
aI7
asI18
(lp13
I1
aI2
aI3
aI4
aI5
aI6
aI7
asI19
(lp14
I1
aI2
aI3
aI5
aI6
aI8
asI21
(lp15
I1
aI2
aI3
aI5
aI6
aI8
asI23
(lp16
I0
aI1
aI2
aI6
aI8
asI24
(lp17
I3
aI8
asI26
(lp18
I1
aI2
aI4
aI5
aI6
aI7
asI28
(lp19
I5
aI6
asI29
(lp20
I1
aI2
aI3
aI5
aI6
aI7
asI32
(lp21
I3
aI5
asI35
(lp22
I1
aI2
aI5
aI6
aI8
asI36
(lp23
I1
aI2
aI3
aI5
aI6
aI8
asI37
(lp24
I3
aI4
aI5
aI6
aI7
asI38
(lp25
I5
aI6
aI8
asI39
(lp26
I2
aI3
aI5
aI6
aI7
asI41
(lp27
I0
aI1
aI5
asI48
(lp28
I1
aI2
aI6
aI7
aI8
asI50
(lp29
I1
aI2
aI3
aI4
aI5
aI6
asI51
(lp30
I3
aI8
asI54
(lp31
I8
asI58
(lp32
I0
aI5
aI6
aI8
asI60
(lp33
I0
aI3
aI8
asI63
(lp34
I0
aI1
aI2
aI4
aI5
aI6
aI7
asI65
(lp35
I0
aI3
aI8
asI67
(lp36
I0
aI2
aI5
aI6
aI7
aI8
asI68
(lp37
I5
aI6
aI8
asI69
(lp38
I1
aI2
aI4
aI5
aI6
aI7
asI71
(lp39
I0
aI2
aI3
aI5
aI6
aI8
asI74
(lp40
I8
asI75
(lp41
I0
aI8
asI77
(lp42
I0
aI8
asI78
(lp43
I1
aI2
aI6
asI79
(lp44
I0
aI1
aI6
aI8
asI81
(lp45
I1
aI2
aI3
aI4
aI5
aI6
aI7
aI8
asI84
(lp46
I6
aI8
asI85
(lp47
I1
aI2
aI3
aI5
aI6
aI7
aI8
asI87
(lp48
I0
aI2
aI5
aI6
aI8
asI89
(lp49
I0
aI3
aI8
asI91
(lp50
I0
aI1
aI2
aI3
aI5
aI6
aI8
asI93
(lp51
I1
aI2
aI5
aI6
aI7
asI96
(lp52
I0
aI3
aI5
aI6
aI8
asI99
(lp53
I1
aI2
aI4
aI5
aI6
aI7
asI100
(lp54
I1
aI2
aI4
aI5
aI6
aI7
asI101
(lp55
I1
aI2
aI3
aI4
aI5
aI6
asI103
(lp56
I1
aI2
aI3
aI4
aI5
aI6
aI7
asI104
(lp57
I0
aI1
aI6
aI8
asI105
(lp58
I2
aI3
aI5
aI6
asI108
(lp59
I1
aI2
aI3
aI4
aI5
aI6
aI7
asI109
(lp60
I1
aI2
aI3
aI5
aI6
aI8
asI110
(lp61
I0
aI8
asI111
(lp62
I1
aI2
aI3
aI5
aI6
aI7
asI112
(lp63
I1
aI2
aI4
aI5
aI6
aI7
asI115
(lp64
I3
aI5
aI6
aI8
asI118
(lp65
I0
aI3
aI8
asI119
(lp66
I1
aI2
aI4
aI5
aI6
aI7
asI120
(lp67
I1
aI2
aI5
aI6
aI8
asI123
(lp68
I8
asI125
(lp69
I3
aI6
aI8
asI129
(lp70
I5
aI6
aI8
asI131
(lp71
I0
aI3
aI5
aI6
asI132
(lp72
I1
aI2
aI3
aI4
aI5
aI6
aI7
asI135
(lp73
I5
aI6
aI8
asI140
(lp74
I0
aI2
aI5
aI6
aI7
aI8
asI142
(lp75
I1
aI2
aI3
aI4
aI5
aI6
asI143
(lp76
I0
aI3
aI5
asI145
(lp77
I1
aI4
aI5
aI6
asI147
(lp78
I0
aI3
aI5
aI6
aI8
asI148
(lp79
I0
aI2
aI3
aI5
aI6
aI8
asI150
(lp80
I2
aI4
aI5
aI6
aI7
asI153
(lp81
I0
aI8
asI154
(lp82
I1
aI2
aI3
aI4
aI5
aI6
asI157
(lp83
I3
aI8
asI158
(lp84
I0
aI1
aI6
aI8
asI161
(lp85
I1
aI2
aI5
aI6
aI8
asI162
(lp86
I1
aI2
aI3
aI4
aI5
aI6
asI163
(lp87
I0
aI8
asI164
(lp88
I6
aI8
asI165
(lp89
I1
aI2
aI3
aI5
aI6
aI8
asI169
(lp90
I1
aI2
aI6
aI7
asI171
(lp91
I0
aI8
asI172
(lp92
I6
aI8
asI175
(lp93
I3
aI5
aI6
aI8
asI177
(lp94
I3
aI8
asI179
(lp95
I0
aI8
asI180
(lp96
I1
aI2
aI3
aI5
aI6
aI7
aI8
asI183
(lp97
I1
aI2
aI3
aI4
aI5
aI6
asI184
(lp98
I1
aI5
aI6
aI7
asI186
(lp99
I1
aI2
aI3
aI4
aI5
aI6
aI7
asI187
(lp100
I0
aI8
asI188
(lp101
I3
aI5
aI6
aI8
asI189
(lp102
I1
aI2
aI4
aI5
aI6
aI7
asI190
(lp103
I8
asI192
(lp104
I1
aI2
aI3
aI5
aI6
aI7
aI8
asI195
(lp105
I0
aI8
asI198
(lp106
I3
aI8
asI199
(lp107
I0
aI1
aI2
aI3
aI5
aI6
aI7
asI202
(lp108
I1
aI2
aI4
aI5
aI6
aI7
asI204
(lp109
I0
aI3
aI8
asI206
(lp110
I3
aI5
aI8
asI213
(lp111
I0
aI1
aI3
aI8
asI216
(lp112
I0
aI3
aI5
aI8
asI220
(lp113
I2
aI6
aI8
asI221
(lp114
I1
aI2
aI4
aI5
aI6
aI7
asI222
(lp115
I1
aI2
aI6
aI8
asI225
(lp116
I1
aI5
aI6
aI7
aI8
asI226
(lp117
I2
aI4
aI5
aI6
aI7
asI227
(lp118
I3
asI228
(lp119
I3
aI8
asI229
(lp120
I1
aI2
aI3
aI5
aI6
aI7
asI230
(lp121
I0
aI3
aI5
aI8
asI231
(lp122
I0
aI3
aI8
asI233
(lp123
I6
aI8
asI234
(lp124
I1
aI2
aI3
aI4
aI5
aI6
aI7
aI8
asI238
(lp125
I0
aI3
aI5
aI8
asI239
(lp126
I0
aI3
aI8
asI240
(lp127
I2
aI3
aI4
aI5
aI6
aI7
asI241
(lp128
I1
aI2
aI3
aI4
aI5
aI6
aI7
aI8
asI242
(lp129
I0
aI2
aI5
aI6
aI8
asI244
(lp130
I1
aI3
aI5
aI6
asI245
(lp131
I1
aI2
aI3
aI4
aI5
aI6
aI7
aI8
asI247
(lp132
I0
aI3
aI5
asI248
(lp133
I1
aI2
aI4
aI5
aI6
aI7
asI251
(lp134
I0
aI8
asI262
(lp135
I1
aI2
aI5
aI6
asI263
(lp136
I0
aI2
aI3
aI8
asI266
(lp137
I2
aI6
aI8
asI270
(lp138
I0
aI1
aI6
aI8
asI271
(lp139
I1
aI2
aI3
aI4
aI5
aI6
aI7
asI272
(lp140
I1
aI2
aI4
aI5
aI6
aI7
asI275
(lp141
I1
aI2
aI4
aI5
aI6
aI7
aI8
asI276
(lp142
I0
aI5
aI6
aI8
asI278
(lp143
I5
aI6
aI7
asI280
(lp144
I1
aI2
aI5
aI6
aI8
asI281
(lp145
I0
aI2
aI3
aI5
aI6
aI8
asI284
(lp146
I0
aI8
asI285
(lp147
I0
aI1
aI2
aI3
aI4
aI5
aI6
aI7
aI8
asI286
(lp148
I1
aI8
asI288
(lp149
I2
aI5
aI6
aI8
asI289
(lp150
I0
aI2
aI3
aI4
aI5
aI6
aI8
asI290
(lp151
I1
aI2
aI3
aI5
aI6
aI7
asI291
(lp152
I0
aI8
asI292
(lp153
I3
aI8
asI293
(lp154
I1
aI2
aI3
aI4
aI5
aI6
aI7
asI297
(lp155
I8
asI298
(lp156
I2
aI3
aI8
asI299
(lp157
I0
aI1
aI2
aI5
aI6
aI7
aI8
asI301
(lp158
I0
aI3
aI5
aI6
aI8
asI304
(lp159
I1
aI2
aI3
aI4
aI5
aI6
asI305
(lp160
I1
aI3
aI5
aI8
asI306
(lp161
I0
aI3
aI5
aI8
asI308
(lp162
I0
aI5
aI8
asI309
(lp163
I2
aI4
aI5
aI6
aI7
aI8
asI310
(lp164
I0
aI3
aI8
asI311
(lp165
I0
aI5
aI8
asI312
(lp166
I5
aI6
aI8
asI314
(lp167
I0
aI2
aI3
aI6
aI8
asI315
(lp168
I0
aI3
aI8
asI317
(lp169
I0
aI1
aI2
aI5
aI8
asI319
(lp170
I3
aI6
aI8
asI320
(lp171
I6
aI8
asI322
(lp172
I1
aI2
aI3
aI5
aI6
aI7
asI327
(lp173
I0
aI3
aI8
asI328
(lp174
I0
aI3
aI8
asI333
(lp175
I0
asI335
(lp176
I0
aI8
asI336
(lp177
I1
aI3
aI5
aI6
asI337
(lp178
I1
aI2
aI4
aI5
aI6
aI7
asI338
(lp179
I2
aI3
aI5
aI6
aI8
asI339
(lp180
I0
aI1
aI2
aI5
aI6
aI8
asI340
(lp181
I0
aI5
aI8
asI342
(lp182
I0
aI1
aI2
aI5
aI6
aI8
asI344
(lp183
I1
aI2
aI3
aI4
aI5
aI6
aI7
asI345
(lp184
I8
asI346
(lp185
I1
aI2
aI4
aI5
aI6
aI7
aI8
asI347
(lp186
I0
aI1
aI2
aI5
aI6
aI8
asI348
(lp187
I8
asI352
(lp188
I3
aI6
aI8
asI354
(lp189
I0
aI8
asI355
(lp190
I1
aI2
aI4
aI5
aI6
aI7
asI359
(lp191
I0
aI3
aI8
asI361
(lp192
I6
aI8
asI362
(lp193
I0
aI1
aI3
aI8
asI363
(lp194
I0
aI1
aI8
asI364
(lp195
I1
aI2
aI4
aI5
aI6
aI7
asI368
(lp196
I3
aI8
asI370
(lp197
I0
aI1
aI8
asI371
(lp198
I1
aI2
aI3
aI4
aI5
aI6
aI7
aI8
asI372
(lp199
I1
aI2
aI4
aI5
aI6
aI7
asI373
(lp200
I0
aI1
aI5
aI6
aI8
asI374
(lp201
I3
aI8
asI376
(lp202
I0
aI3
aI8
asI377
(lp203
I0
aI1
aI8
asI385
(lp204
I0
aI2
aI8
asI387
(lp205
I3
aI8
asI388
(lp206
I1
aI7
asI390
(lp207
I1
aI2
aI3
aI4
aI5
aI6
aI7
asI391
(lp208
I2
aI3
aI5
aI6
asI393
(lp209
I8
asI394
(lp210
I1
aI2
aI5
aI6
aI8
asI395
(lp211
I1
aI3
aI4
aI5
aI6
asI396
(lp212
I2
aI3
aI5
aI6
aI8
asI397
(lp213
I0
aI6
aI7
aI8
asI398
(lp214
I0
aI2
aI3
aI6
aI8
asI399
(lp215
I1
aI2
aI3
aI4
aI5
aI6
aI7
asI400
(lp216
I3
aI5
aI6
aI8
asI401
(lp217
I1
aI2
aI4
aI5
aI6
aI7
asI402
(lp218
I0
aI3
aI8
asI405
(lp219
I3
aI5
aI6
asI407
(lp220
I1
aI2
aI3
aI4
aI5
aI6
asI408
(lp221
I0
aI3
aI8
asI412
(lp222
I1
aI2
aI3
aI4
aI5
aI6
aI7
asI413
(lp223
I1
aI2
aI4
aI5
aI6
aI7
asI415
(lp224
I1
aI2
aI5
aI6
aI7
asI416
(lp225
I0
aI1
aI8
asI417
(lp226
I1
aI2
aI3
aI4
aI5
aI6
aI8
asI421
(lp227
I1
aI2
aI5
aI6
asI422
(lp228
I0
aI8
asI423
(lp229
I0
aI2
aI6
aI7
aI8
asI424
(lp230
I6
aI8
asI425
(lp231
I0
aI3
aI8
asI426
(lp232
I1
aI2
aI3
aI5
aI6
aI7
asI428
(lp233
I0
aI2
aI5
aI6
aI8
asI429
(lp234
I0
aI8
asI433
(lp235
I1
aI2
aI3
aI5
aI6
aI7
asI436
(lp236
I2
aI3
aI5
aI6
aI8
asI437
(lp237
I1
aI2
aI3
aI5
aI6
aI7
asI438
(lp238
I8
asI439
(lp239
I3
aI8
asI440
(lp240
I3
aI8
asI444
(lp241
I1
aI2
aI4
aI5
aI6
aI7
aI8
asI445
(lp242
I1
aI2
aI5
aI6
asI452
(lp243
I0
aI1
aI3
aI5
aI6
aI8
asI455
(lp244
I8
asI456
(lp245
I0
aI1
aI2
aI3
aI5
aI6
aI7
aI8
asI459
(lp246
I1
aI2
aI4
aI5
aI6
asI462
(lp247
I0
aI3
aI8
asI464
(lp248
I3
aI5
aI6
asI465
(lp249
I0
aI3
aI8
asI466
(lp250
I0
aI1
aI8
asI469
(lp251
I6
aI8
asI470
(lp252
I1
aI2
aI3
aI4
aI5
aI6
aI7
asI472
(lp253
I1
aI2
aI3
aI4
aI5
aI6
aI7
asI473
(lp254
I1
aI2
aI3
aI4
aI5
aI6
asI476
(lp255
I0
aI1
aI3
aI5
aI8
asI479
(lp256
I1
aI2
aI3
aI4
aI5
aI6
aI7
asI480
(lp257
I3
aI6
aI8
asI481
(lp258
I1
aI2
aI4
aI5
aI6
aI7
asI484
(lp259
I1
aI2
aI3
aI4
aI5
aI6
aI7
asI485
(lp260
I1
aI2
aI3
aI4
aI5
aI6
aI7
asI487
(lp261
I1
aI2
aI3
aI4
aI5
aI6
asI488
(lp262
I1
aI2
aI5
aI6
aI7
asI490
(lp263
I2
aI4
aI5
aI6
aI7
asI491
(lp264
I3
aI8
asI493
(lp265
I2
aI3
aI4
aI5
aI6
aI7
asI494
(lp266
I0
aI2
aI5
aI6
aI8
asI495
(lp267
I1
aI2
aI3
aI5
aI6
aI7
asI496
(lp268
I1
aI4
aI5
aI6
aI7
asI497
(lp269
I1
aI2
aI3
aI5
aI6
aI7
asI500
(lp270
I1
aI2
aI4
aI5
aI6
asI501
(lp271
I0
aI4
aI5
aI8
asI502
(lp272
I0
aI3
aI8
asI504
(lp273
I1
aI2
aI5
aI6
aI8
asI507
(lp274
I3
aI5
asI509
(lp275
I3
aI8
asI510
(lp276
I1
aI2
aI3
aI4
aI5
aI6
aI7
asI511
(lp277
I1
aI2
aI5
aI6
aI7
asI515
(lp278
I2
aI3
aI5
aI6
aI8
asI518
(lp279
I6
aI8
asI525
(lp280
I1
aI2
aI4
aI5
aI6
aI7
asI526
(lp281
I1
aI2
aI4
aI5
aI6
asI527
(lp282
I0
asI532
(lp283
I1
aI2
aI4
aI5
aI6
aI7
aI8
asI533
(lp284
I0
aI1
aI3
aI5
aI6
aI8
asI534
(lp285
I1
aI2
aI3
aI4
aI5
aI6
aI7
asI538
(lp286
I3
aI6
aI8
asI540
(lp287
I0
aI8
asI541
(lp288
I0
aI1
aI2
aI5
aI6
aI8
asI543
(lp289
I1
aI2
aI3
aI4
aI5
aI6
asI546
(lp290
I0
aI2
aI5
aI6
aI8
asI547
(lp291
I3
aI5
aI8
asI549
(lp292
I5
aI6
aI8
asI556
(lp293
I2
aI4
aI5
aI6
aI7
aI8
asI558
(lp294
I3
aI8
asI559
(lp295
I0
aI3
aI8
asI560
(lp296
I1
aI2
aI3
aI5
aI6
aI7
asI562
(lp297
I0
aI1
aI3
aI8
asI563
(lp298
I1
aI2
aI4
aI5
aI6
aI7
asI566
(lp299
I0
aI8
asI567
(lp300
I1
aI2
aI3
aI4
aI5
aI6
aI7
asI573
(lp301
I0
aI8
asI574
(lp302
I8
asI576
(lp303
I0
aI3
aI5
aI8
asI580
(lp304
I1
aI4
aI5
aI6
aI8
asI586
(lp305
I0
aI1
aI2
aI5
aI6
aI8
asI590
(lp306
I0
aI1
aI5
aI6
aI8
asI593
(lp307
I1
aI2
aI3
aI4
aI5
aI6
aI7
asI594
(lp308
I6
aI8
asI595
(lp309
I3
aI8
asI597
(lp310
I1
aI2
aI3
aI4
aI5
aI6
aI7
asI598
(lp311
I2
aI3
aI5
aI6
asI600
(lp312
I1
aI2
aI3
aI4
aI5
aI6
aI7
asI602
(lp313
I1
aI2
aI5
aI6
aI8
asI603
(lp314
I1
aI2
aI5
aI6
aI7
asI607
(lp315
I1
aI2
aI3
aI4
aI5
aI6
aI7
asI608
(lp316
I1
aI2
aI3
aI4
aI5
aI6
asI609
(lp317
I1
aI2
aI3
aI6
aI7
asI614
(lp318
I0
aI3
aI5
aI8
asI615
(lp319
I1
aI2
aI5
aI6
aI8
asI621
(lp320
I1
aI3
aI5
aI6
aI8
asI626
(lp321
I0
aI3
aI5
aI8
asI628
(lp322
I1
aI2
aI3
aI5
aI6
aI7
aI8
asI629
(lp323
I8
asI630
(lp324
I1
aI2
aI4
aI5
aI6
aI7
asI632
(lp325
I0
aI8
asI635
(lp326
I1
aI2
aI3
aI5
aI6
aI7
aI8
asI638
(lp327
I0
aI5
aI8
asI639
(lp328
I8
asI640
(lp329
I1
aI2
aI3
aI5
aI6
aI7
asI641
(lp330
I1
aI2
aI3
aI4
aI5
aI6
asI643
(lp331
I1
aI2
aI4
aI5
aI6
aI7
asI644
(lp332
I5
asI645
(lp333
I0
aI3
aI5
aI6
aI8
asI646
(lp334
I1
aI2
aI3
aI4
aI5
aI6
aI7
asI649
(lp335
I8
asI651
(lp336
I1
aI2
aI4
aI5
aI6
aI7
aI8
asI652
(lp337
I6
aI8
asI654
(lp338
I3
aI8
asI656
(lp339
I3
aI8
asI657
(lp340
I0
aI3
aI8
asI658
(lp341
I1
aI2
aI3
aI4
aI5
aI6
aI7
asI659
(lp342
I1
aI2
aI4
aI5
aI6
aI7
asI661
(lp343
I0
aI3
aI8
asI662
(lp344
I1
aI2
aI4
aI5
aI6
aI7
asI664
(lp345
I6
aI8
asI666
(lp346
I1
aI2
aI4
aI5
aI6
aI7
aI8
asI667
(lp347
I1
aI2
aI5
aI6
asI669
(lp348
I3
aI8
asI671
(lp349
I1
aI2
aI3
aI4
aI5
aI6
aI7
aI8
asI672
(lp350
I1
aI2
aI4
aI5
aI6
aI7
asI673
(lp351
I3
aI5
aI6
aI8
asI674
(lp352
I0
aI6
aI8
asI675
(lp353
I3
aI5
asI676
(lp354
I7
asI678
(lp355
I0
aI6
aI8
asI680
(lp356
I3
aI8
asI681
(lp357
I0
aI3
aI5
aI8
asI682
(lp358
I8
asI683
(lp359
I6
aI8
asI684
(lp360
I1
aI2
aI3
aI4
aI5
aI6
aI7
asI685
(lp361
I0
aI3
aI5
aI8
asI688
(lp362
I1
aI2
aI3
aI4
aI5
aI6
asI689
(lp363
I1
aI2
aI3
aI5
aI6
aI7
asI692
(lp364
I0
aI3
aI8
asI694
(lp365
I5
aI6
aI8
asI695
(lp366
I0
aI1
aI5
aI6
aI8
asI698
(lp367
I1
aI2
aI3
aI5
aI6
asI701
(lp368
I1
aI2
aI3
aI4
aI5
aI6
aI7
asI703
(lp369
I0
aI3
aI5
aI8
asI705
(lp370
I1
aI8
asI707
(lp371
I0
aI8
asI708
(lp372
I0
aI8
asI709
(lp373
I1
aI2
aI4
aI5
aI6
aI7
asI710
(lp374
I3
aI8
asI712
(lp375
I0
aI2
aI3
aI5
aI6
asI714
(lp376
I0
aI3
aI8
asI716
(lp377
I0
aI8
asI720
(lp378
I8
asI721
(lp379
I3
aI6
aI8
asI722
(lp380
I0
aI2
aI6
aI8
asI723
(lp381
I1
aI2
aI3
aI5
aI6
asI726
(lp382
I1
aI2
aI3
aI5
aI6
asI728
(lp383
I6
aI8
asI732
(lp384
I6
aI8
asI733
(lp385
I0
aI3
aI6
aI8
asI734
(lp386
I2
aI5
aI6
aI8
asI735
(lp387
I1
aI2
aI5
aI6
aI7
aI8
asI736
(lp388
I2
aI3
aI4
aI5
aI6
aI8
asI738
(lp389
I0
aI3
aI8
asI739
(lp390
I0
aI3
aI8
asI742
(lp391
I1
aI2
aI5
aI6
aI8
asI744
(lp392
I0
aI1
aI8
asI747
(lp393
I1
aI2
aI5
aI6
aI8
asI749
(lp394
I1
aI2
aI5
aI6
aI8
asI752
(lp395
I2
aI4
aI5
aI6
aI7
asI756
(lp396
I0
aI6
aI8
asI759
(lp397
I0
aI2
aI6
aI8
asI760
(lp398
I0
aI8
asI761
(lp399
I1
aI2
aI3
aI4
aI5
aI6
asI767
(lp400
I1
aI2
aI4
aI5
aI6
asI768
(lp401
I0
aI8
asI769
(lp402
I0
aI2
aI3
aI5
aI6
aI8
asI772
(lp403
I1
aI2
aI3
aI4
aI5
aI6
asI775
(lp404
I0
aI1
aI3
aI5
asI776
(lp405
I1
aI2
aI3
aI4
aI5
aI6
aI7
asI779
(lp406
I0
aI1
aI8
asI782
(lp407
I0
aI1
aI5
aI6
aI8
asI783
(lp408
I0
aI3
aI8
asI787
(lp409
I0
aI1
aI8
asI788
(lp410
I1
aI2
aI4
aI5
aI6
aI7
asI790
(lp411
I6
aI8
asI791
(lp412
I6
aI8
asI792
(lp413
I1
aI2
aI5
aI6
aI8
asI794
(lp414
I0
aI3
aI5
aI8
asI795
(lp415
I3
aI6
aI8
asI798
(lp416
I3
aI6
aI8
asI799
(lp417
I1
aI2
aI3
aI4
aI5
aI6
aI7
aI8
asI800
(lp418
I0
aI2
aI3
aI4
aI5
aI6
aI7
aI8
asI802
(lp419
I8
asI803
(lp420
I1
aI2
aI5
aI6
aI8
asI805
(lp421
I0
aI1
aI2
aI3
aI5
aI6
aI8
asI806
(lp422
I0
aI2
aI5
aI6
aI8
asI807
(lp423
I1
aI2
aI3
aI5
aI6
asI808
(lp424
I0
aI8
asI809
(lp425
I3
aI5
aI6
asI810
(lp426
I0
aI8
asI811
(lp427
I1
aI2
aI3
aI5
aI6
asI812
(lp428
I1
aI2
aI3
aI5
aI6
asI813
(lp429
I1
aI2
aI4
aI5
aI6
asI814
(lp430
I1
aI2
aI4
aI5
aI6
aI7
asI815
(lp431
I0
aI2
aI3
aI5
aI6
asI816
(lp432
I0
aI8
asI818
(lp433
I0
aI3
aI8
asI821
(lp434
I3
aI8
asI822
(lp435
I0
aI8
asI827
(lp436
I0
aI3
aI8
asI828
(lp437
I0
asI830
(lp438
I1
aI2
aI4
aI5
aI6
asI838
(lp439
I3
aI8
asI839
(lp440
I0
aI8
asI841
(lp441
I0
aI5
aI6
aI8
asI842
(lp442
I0
aI1
aI3
aI5
aI6
aI8
asI843
(lp443
I0
aI5
aI6
aI7
asI845
(lp444
I0
aI3
aI5
aI8
asI846
(lp445
I2
aI4
aI5
aI6
aI7
aI8
asI847
(lp446
I0
aI3
aI8
asI848
(lp447
I0
aI3
asI850
(lp448
I1
aI2
aI3
aI5
aI6
aI7
aI8
asI851
(lp449
I3
aI8
asI852
(lp450
I0
aI8
asI853
(lp451
I1
aI2
aI3
aI5
aI6
aI7
asI856
(lp452
I8
asI857
(lp453
I1
aI2
aI4
aI5
aI6
aI7
asI862
(lp454
I1
aI2
aI3
aI4
aI5
aI6
aI7
asI870
(lp455
I1
aI2
aI4
aI5
aI6
aI7
aI8
asI872
(lp456
I0
aI3
aI5
aI8
asI873
(lp457
I0
aI3
aI8
asI876
(lp458
I3
asI878
(lp459
I1
aI2
aI3
aI5
aI6
aI7
asI881
(lp460
I0
aI1
aI3
aI5
aI8
asI882
(lp461
I1
aI2
aI3
aI5
aI6
aI8
asI883
(lp462
I1
aI3
aI5
aI6
aI8
asI884
(lp463
I0
aI3
aI5
aI6
asI887
(lp464
I3
aI8
asI890
(lp465
I0
aI3
aI8
asI891
(lp466
I3
aI5
aI6
aI8
asI893
(lp467
I0
aI1
aI2
aI6
aI8
asI894
(lp468
I1
aI2
aI5
aI6
aI7
asI899
(lp469
I1
aI2
aI3
aI4
aI5
aI6
asI900
(lp470
I3
aI8
asI904
(lp471
I0
aI2
aI3
aI6
aI8
asI905
(lp472
I2
aI6
aI8
asI906
(lp473
I0
aI3
aI8
asI908
(lp474
I1
aI2
aI3
aI5
aI6
aI7
asI909
(lp475
I0
aI2
aI5
aI6
aI7
aI8
asI910
(lp476
I8
asI911
(lp477
I0
aI3
aI8
asI912
(lp478
I1
aI2
aI5
aI6
aI8
asI913
(lp479
I1
aI2
aI4
aI5
aI6
aI7
asI916
(lp480
I2
aI3
aI4
aI5
aI6
asI917
(lp481
I2
aI3
aI5
aI6
asI918
(lp482
I1
aI2
aI3
aI4
aI5
aI6
aI7
asI919
(lp483
I0
aI3
aI8
asI920
(lp484
I0
aI8
asI922
(lp485
I0
aI5
aI8
asI923
(lp486
I0
aI3
aI8
asI925
(lp487
I0
aI8
asI927
(lp488
I2
aI3
aI5
aI6
asI928
(lp489
I0
aI1
aI3
aI5
asI929
(lp490
I1
aI5
aI6
aI7
asI930
(lp491
I1
aI2
aI3
aI5
aI6
aI7
asI931
(lp492
I1
aI2
aI3
aI4
aI5
aI6
asI936
(lp493
I1
aI2
aI3
aI5
aI6
aI7
aI8
asI939
(lp494
I6
aI8
asI940
(lp495
I0
aI3
aI5
aI6
aI8
asI941
(lp496
I0
aI5
asI943
(lp497
I3
aI8
asI949
(lp498
I1
aI2
aI4
aI5
aI6
asI951
(lp499
I1
aI2
aI4
aI5
aI6
aI7
asI953
(lp500
I0
aI1
aI2
aI5
aI6
aI8
asI955
(lp501
I0
aI1
aI8
asI956
(lp502
I1
aI2
aI3
aI5
aI6
aI7
asI959
(lp503
I3
aI5
aI6
aI8
asI963
(lp504
I1
aI2
aI3
aI4
aI5
aI6
aI7
asI964
(lp505
I0
aI3
aI8
asI966
(lp506
I1
aI3
aI5
aI6
aI7
asI967
(lp507
I1
aI2
aI3
aI5
aI6
asI968
(lp508
I0
aI3
aI8
asI969
(lp509
I3
aI6
aI8
asI972
(lp510
I1
aI2
aI4
aI5
aI6
aI7
asI974
(lp511
I0
aI1
aI3
aI5
asI976
(lp512
I0
aI3
aI5
aI6
aI8
asI980
(lp513
I1
aI2
aI3
aI5
aI6
aI8
asI981
(lp514
I3
aI6
aI8
asI982
(lp515
I3
aI8
asI985
(lp516
I1
aI2
aI3
aI4
aI5
aI6
aI8
asI988
(lp517
I1
aI2
aI4
aI5
aI6
aI7
aI8
asI989
(lp518
I1
aI2
aI3
aI4
aI5
aI6
aI7
asI991
(lp519
I1
aI2
aI3
aI5
aI6
aI7
asI993
(lp520
I3
aI6
aI8
asI997
(lp521
I8
asI998
(lp522
I1
aI2
aI4
aI5
aI6
aI7
asI999
(lp523
I1
aI2
aI5
aI6
aI7
asI1000
(lp524
I1
aI2
aI3
aI4
aI5
aI6
aI7
asI1001
(lp525
I0
aI1
aI6
aI8
asI1006
(lp526
I1
aI2
aI4
aI5
aI6
asI1010
(lp527
I0
aI6
aI8
asI1011
(lp528
I2
aI3
aI5
aI6
asI1012
(lp529
I1
aI2
aI3
aI5
aI6
asI1014
(lp530
I1
aI2
aI4
aI5
aI6
asI1015
(lp531
I1
aI5
aI6
aI7
asI1017
(lp532
I5
aI6
aI8
asI1022
(lp533
I0
aI2
aI3
aI5
aI8
asI1024
(lp534
I0
aI1
aI2
aI3
aI4
aI5
aI6
asI1026
(lp535
I1
aI2
aI4
aI5
aI6
aI7
asI1029
(lp536
I1
aI2
aI3
aI5
aI6
aI7
asI1030
(lp537
I0
aI3
aI5
aI8
asI1031
(lp538
I6
aI8
asI1032
(lp539
I1
aI2
aI3
aI5
aI6
aI7
asI1035
(lp540
I5
aI6
aI8
asI1036
(lp541
I1
aI2
aI4
aI5
aI6
aI7
asI1038
(lp542
I1
aI2
aI4
aI5
aI6
aI7
asI1039
(lp543
I0
aI8
asI1040
(lp544
I0
aI2
aI6
aI7
aI8
asI1041
(lp545
I0
aI8
asI1043
(lp546
I0
aI6
aI8
asI1044
(lp547
I0
aI8
asI1046
(lp548
I0
aI6
aI8
asI1048
(lp549
I0
aI1
aI2
aI3
aI5
aI6
asI1052
(lp550
I0
aI3
aI8
asI1054
(lp551
I6
aI8
asI1055
(lp552
I3
aI5
aI6
asI1056
(lp553
I8
asI1057
(lp554
I0
aI3
aI8
asI1059
(lp555
I1
aI2
aI3
aI5
aI6
aI7
asI1061
(lp556
I0
aI8
asI1063
(lp557
I6
aI8
asI1064
(lp558
I6
aI8
asI1065
(lp559
I1
aI2
aI5
aI6
asI1067
(lp560
I1
aI2
aI5
aI6
aI7
aI8
asI1069
(lp561
I3
aI8
asI1070
(lp562
I1
aI2
aI5
aI6
aI8
asI1073
(lp563
I0
aI1
aI2
aI3
aI5
aI6
aI7
asI1074
(lp564
I1
aI2
aI4
aI5
aI6
aI7
asI1075
(lp565
I0
aI2
aI3
aI5
aI6
aI8
asI1077
(lp566
I1
aI2
aI3
aI4
aI5
aI6
aI7
asI1079
(lp567
I5
aI6
aI8
asI1080
(lp568
I2
aI3
aI6
aI8
asI1081
(lp569
I1
aI2
aI4
aI5
aI6
aI7
asI1082
(lp570
I6
aI8
asI1083
(lp571
I1
aI2
aI4
aI5
aI6
aI7
asI1085
(lp572
I1
aI2
aI5
aI6
aI7
asI1086
(lp573
I1
aI2
aI3
aI5
aI6
aI7
aI8
asI1088
(lp574
I1
aI2
aI3
aI5
aI6
aI7
aI8
asI1091
(lp575
I1
aI2
aI4
aI5
aI6
asI1092
(lp576
I3
aI8
asI1093
(lp577
I0
aI8
asI1094
(lp578
I5
aI6
aI8
asI1096
(lp579
I1
aI2
aI3
aI5
aI6
asI1097
(lp580
I0
aI2
aI3
aI5
aI6
aI8
asI1098
(lp581
I8
asI1100
(lp582
I1
aI2
aI3
aI4
aI5
aI6
aI7
asI1101
(lp583
I1
aI2
aI3
aI5
aI6
asI1102
(lp584
I6
aI8
asI1103
(lp585
I3
aI5
aI6
aI8
asI1105
(lp586
I0
aI2
aI5
aI6
aI8
asI1106
(lp587
I2
aI3
aI4
aI5
aI6
aI7
asI1107
(lp588
I6
aI8
asI1114
(lp589
I1
aI2
aI4
aI5
aI6
aI7
asI1115
(lp590
I1
aI3
aI5
aI6
asI1118
(lp591
I1
aI2
aI3
aI4
aI5
aI6
aI7
aI8
asI1119
(lp592
I1
aI2
aI4
aI5
aI6
aI7
asI1129
(lp593
I6
aI8
asI1130
(lp594
I1
aI2
aI5
aI6
aI7
asI1131
(lp595
I0
aI8
asI1132
(lp596
I3
aI5
aI6
aI8
asI1133
(lp597
I0
aI8
asI1134
(lp598
I1
aI2
aI3
aI5
aI6
aI7
asI1136
(lp599
I6
aI8
asI1137
(lp600
I0
aI1
aI2
aI3
aI5
aI6
aI8
asI1138
(lp601
I1
aI2
aI3
aI4
aI5
aI6
asI1139
(lp602
I0
aI3
aI8
asI1140
(lp603
I1
aI2
aI4
aI5
aI6
aI7
asI1142
(lp604
I2
aI3
aI5
aI6
aI7
aI8
asI1145
(lp605
I1
aI2
aI3
aI5
aI6
aI7
aI8
asI1149
(lp606
I2
aI3
aI5
aI6
aI8
asI1150
(lp607
I0
aI8
asI1156
(lp608
I3
aI5
aI6
aI8
asI1157
(lp609
I1
aI2
aI4
aI5
aI6
aI7
asI1158
(lp610
I1
aI2
aI5
aI6
aI7
asI1160
(lp611
I0
aI1
aI2
aI5
aI6
aI8
asI1162
(lp612
I1
aI5
aI8
asI1165
(lp613
I1
aI2
aI3
aI4
aI5
aI6
aI7
asI1166
(lp614
I0
aI2
aI5
aI6
aI7
asI1167
(lp615
I0
aI1
aI2
aI3
aI5
aI6
aI8
asI1168
(lp616
I5
aI6
aI8
asI1169
(lp617
I1
aI2
aI4
aI5
aI6
aI7
asI1171
(lp618
I2
aI3
aI5
aI6
asI1172
(lp619
I2
aI3
aI4
aI5
aI6
aI7
asI1175
(lp620
I1
aI2
aI5
aI6
aI7
asI1176
(lp621
I0
aI8
asI1177
(lp622
I0
aI1
aI5
aI8
asI1179
(lp623
I0
aI1
aI3
aI8
asI1180
(lp624
I1
aI2
aI3
aI4
aI5
aI6
asI1181
(lp625
I6
aI8
asI1184
(lp626
I1
aI2
aI3
aI4
aI5
aI6
aI7
asI1185
(lp627
I1
aI2
aI3
aI5
aI6
aI8
asI1188
(lp628
I0
aI8
asI1189
(lp629
I1
aI2
aI3
aI5
aI6
aI7
aI8
asI1190
(lp630
I0
aI2
aI3
aI5
aI6
asI1193
(lp631
I1
aI2
aI5
aI6
asI1194
(lp632
I1
aI2
aI3
aI4
aI5
aI6
aI7
asI1198
(lp633
I2
aI3
aI5
aI6
aI8
asI1200
(lp634
I0
aI3
aI8
asI1201
(lp635
I1
aI2
aI4
aI5
aI6
aI7
asI1202
(lp636
I1
aI2
aI4
aI5
aI6
aI7
aI8
asI1203
(lp637
I1
aI2
aI3
aI4
aI5
aI6
aI7
aI8
asI1208
(lp638
I2
aI3
aI5
aI6
aI8
asI1209
(lp639
I1
aI8
asI1211
(lp640
I1
aI2
aI3
aI4
aI5
aI6
aI7
asI1212
(lp641
I5
aI8
asI1214
(lp642
I6
aI8
asI1215
(lp643
I0
aI2
aI5
aI6
asI1216
(lp644
I0
aI6
aI8
asI1219
(lp645
I0
aI3
aI8
asI1223
(lp646
I0
aI3
aI8
asI1224
(lp647
I1
aI2
aI6
aI8
asI1225
(lp648
I6
aI8
asI1227
(lp649
I1
aI2
aI3
aI4
aI5
aI6
aI7
asI1228
(lp650
I1
aI2
aI3
aI4
aI5
aI6
aI7
asI1229
(lp651
I0
asI1230
(lp652
I1
aI2
aI3
aI4
aI5
aI6
aI7
aI8
asI1231
(lp653
I1
aI2
aI3
aI5
aI6
aI7
asI1232
(lp654
I2
aI3
aI4
aI5
aI6
aI7
asI1233
(lp655
I6
aI8
asI1234
(lp656
I0
aI2
aI3
aI5
aI6
asI1235
(lp657
I0
aI8
asI1236
(lp658
I0
aI3
aI8
asI1238
(lp659
I1
aI5
aI6
aI8
asI1239
(lp660
I0
aI1
aI3
aI4
aI5
aI6
asI1240
(lp661
I3
aI6
aI8
asI1241
(lp662
I1
aI2
aI4
aI5
aI6
aI7
asI1243
(lp663
I0
aI2
aI3
aI5
aI6
asI1244
(lp664
I1
aI2
aI5
aI6
aI8
asI1245
(lp665
I1
aI2
aI4
aI5
aI6
aI7
asI1246
(lp666
I2
aI5
aI6
asI1248
(lp667
I0
aI1
aI8
asI1249
(lp668
I3
aI8
asI1250
(lp669
I0
aI1
aI2
aI4
aI5
aI6
aI7
aI8
asI1251
(lp670
I1
aI2
aI4
aI5
aI6
aI8
asI1252
(lp671
I0
aI2
aI3
aI8
asI1253
(lp672
I1
aI2
aI3
aI4
aI5
aI6
aI7
asI1256
(lp673
I1
aI5
aI6
aI7
asI1257
(lp674
I8
asI1258
(lp675
I0
aI1
aI2
aI5
aI6
aI8
asI1259
(lp676
I0
aI1
aI2
aI3
aI5
aI6
aI8
asI1260
(lp677
I1
aI2
aI3
aI5
aI6
aI7
aI8
asI1261
(lp678
I1
aI2
aI4
aI5
aI6
aI7
asI1262
(lp679
I3
aI5
aI8
asI1264
(lp680
I0
aI5
aI8
asI1265
(lp681
I0
aI1
aI2
aI3
aI6
aI8
asI1268
(lp682
I1
aI2
aI3
aI4
aI5
aI6
aI7
asI1269
(lp683
I0
aI3
aI6
aI8
asI1270
(lp684
I5
aI6
asI1271
(lp685
I8
asI1272
(lp686
I2
aI3
aI5
aI6
aI8
asI1273
(lp687
I1
aI2
aI4
aI5
aI6
aI7
asI1274
(lp688
I0
aI2
aI5
aI6
aI8
asI1277
(lp689
I0
aI5
aI8
asI1278
(lp690
I1
aI2
aI3
aI4
aI5
aI6
asI1279
(lp691
I1
aI2
aI3
aI5
aI6
aI8
asI1281
(lp692
I1
aI2
aI5
aI6
aI7
asI1282
(lp693
I0
aI2
aI3
aI4
aI5
aI6
aI7
aI8
asI1283
(lp694
I0
aI5
aI6
aI8
asI1284
(lp695
I1
aI2
aI4
aI5
aI6
aI7
asI1289
(lp696
I0
aI8
asI1290
(lp697
I0
aI3
aI8
asI1291
(lp698
I1
aI2
aI4
aI5
aI6
asI1292
(lp699
I1
aI2
aI5
aI6
asI1296
(lp700
I0
aI5
aI6
aI8
asI1297
(lp701
I3
aI5
aI8
asI1298
(lp702
I1
aI2
aI4
aI5
aI6
aI8
asI1299
(lp703
I1
aI2
aI3
aI4
aI5
aI6
aI7
asI1303
(lp704
I8
asI1305
(lp705
I5
aI6
aI8
asI1310
(lp706
I1
aI2
aI4
aI5
aI6
aI7
asI1312
(lp707
I1
aI2
aI3
aI4
aI5
aI6
aI7
asI1313
(lp708
I3
aI6
aI8
asI1316
(lp709
I0
aI3
aI5
asI1317
(lp710
I0
aI1
aI2
aI8
asI1318
(lp711
I0
aI3
aI5
aI6
asI1320
(lp712
I0
aI5
aI6
asI1323
(lp713
I0
aI2
aI3
aI5
asI1324
(lp714
I1
aI2
aI3
aI4
aI5
aI6
aI7
asI1327
(lp715
I0
aI3
aI8
asI1328
(lp716
I1
aI2
aI4
aI5
aI6
aI8
asI1329
(lp717
I0
aI1
aI2
aI4
aI5
aI6
aI8
asI1331
(lp718
I1
aI2
aI4
aI5
aI6
asI1332
(lp719
I1
aI2
aI5
aI6
aI8
asI1336
(lp720
I0
aI8
asI1338
(lp721
I1
aI2
aI6
aI8
asI1339
(lp722
I1
aI2
aI3
aI5
aI6
aI7
asI1342
(lp723
I0
aI1
aI8
asI1344
(lp724
I3
aI8
asI1346
(lp725
I1
aI2
aI3
aI4
aI5
aI6
asI1347
(lp726
I0
aI1
aI5
aI6
aI8
asI1348
(lp727
I1
aI2
aI3
aI5
aI6
aI8
asI1349
(lp728
I1
aI5
aI6
asI1350
(lp729
I0
aI2
aI3
aI6
aI8
asI1353
(lp730
I1
aI2
aI3
aI4
aI5
aI6
asI1355
(lp731
I0
aI2
aI5
aI6
aI8
asI1356
(lp732
I1
aI2
aI3
aI4
aI5
aI6
asI1359
(lp733
I1
aI6
aI8
asI1360
(lp734
I0
aI1
aI5
aI6
aI8
asI1361
(lp735
I1
aI2
aI5
aI6
asI1362
(lp736
I1
aI2
aI3
aI5
aI6
asI1363
(lp737
I1
aI2
aI3
aI6
asI1365
(lp738
I3
aI8
asI1370
(lp739
I1
aI2
aI3
aI5
aI6
aI7
asI1375
(lp740
I0
aI3
aI8
asI1376
(lp741
I1
aI2
aI3
aI5
aI6
aI8
asI1378
(lp742
I0
aI5
aI8
asI1379
(lp743
I0
aI2
aI3
aI5
aI6
aI8
asI1382
(lp744
I1
aI2
aI4
aI5
aI6
asI1386
(lp745
I0
aI3
aI8
asI1387
(lp746
I0
aI8
asI1388
(lp747
I6
aI8
asI1389
(lp748
I0
aI8
asI1391
(lp749
I6
aI8
asI1392
(lp750
I1
aI2
aI3
aI5
aI6
aI7
asI1393
(lp751
I5
aI6
aI8
asI1394
(lp752
I1
aI2
aI3
aI5
aI6
aI7
asI1399
(lp753
I2
aI3
aI5
aI6
aI7
asI1402
(lp754
I0
aI1
aI2
aI5
aI6
aI8
asI1407
(lp755
I1
aI2
aI5
aI6
asI1409
(lp756
I1
aI2
aI3
aI4
aI6
aI7
asI1412
(lp757
I1
aI2
aI5
aI6
aI8
asI1413
(lp758
I1
aI2
aI4
aI5
aI6
aI7
asI1414
(lp759
I3
aI6
aI8
asI1415
(lp760
I0
aI5
aI6
aI8
asI1416
(lp761
I8
asI1418
(lp762
I1
aI2
aI3
aI4
aI5
aI6
aI7
asI1419
(lp763
I1
aI2
aI5
aI6
aI8
asI1420
(lp764
I0
aI2
aI3
aI5
aI6
aI8
asI1422
(lp765
I1
aI5
aI6
aI8
asI1424
(lp766
I1
aI2
aI3
aI4
aI5
aI6
aI7
asI1426
(lp767
I0
aI8
asI1429
(lp768
I2
aI3
aI5
aI6
asI1430
(lp769
I0
aI8
asI1431
(lp770
I1
aI2
aI3
aI4
aI5
aI6
aI7
asI1435
(lp771
I1
aI2
aI3
aI4
aI5
aI6
aI7
asI1437
(lp772
I0
aI1
aI2
aI3
aI5
aI6
aI8
asI1439
(lp773
I1
aI2
aI3
aI5
aI6
aI7
asI1441
(lp774
I6
aI8
asI1442
(lp775
I3
aI7
aI8
asI1443
(lp776
I0
aI2
aI5
aI6
asI1444
(lp777
I1
aI2
aI3
aI4
aI5
aI6
asI1445
(lp778
I1
aI2
aI4
aI5
aI6
aI7
asI1446
(lp779
I0
aI1
aI2
aI3
aI4
aI5
aI6
aI8
asI1447
(lp780
I8
asI1449
(lp781
I6
aI8
asI1450
(lp782
I1
aI2
aI4
aI5
aI6
aI7
asI1451
(lp783
I1
aI2
aI3
aI5
aI6
aI7
asI1453
(lp784
I0
aI3
aI5
aI6
aI8
asI1456
(lp785
I6
aI8
asI1457
(lp786
I1
aI2
aI4
aI5
aI6
asI1458
(lp787
I6
aI8
asI1460
(lp788
I1
aI2
aI4
aI5
aI6
aI7
asI1462
(lp789
I0
aI3
aI8
asI1463
(lp790
I1
aI2
aI4
aI5
aI6
asI1464
(lp791
I3
aI5
asI1465
(lp792
I0
aI1
aI8
asI1467
(lp793
I1
aI2
aI4
aI5
aI6
aI7
asI1468
(lp794
I1
aI2
aI3
aI4
aI5
aI6
asI1469
(lp795
I1
aI2
aI4
aI5
aI6
asI1470
(lp796
I0
aI6
aI8
asI1473
(lp797
I1
aI2
aI4
aI5
aI6
aI7
asI1475
(lp798
I2
aI3
aI4
aI5
aI6
aI7
asI1478
(lp799
I6
aI8
asI1479
(lp800
I0
aI3
aI8
asI1485
(lp801
I3
aI5
aI6
asI1489
(lp802
I1
aI2
aI3
aI4
aI5
aI6
asI1490
(lp803
I2
aI3
aI4
aI5
aI6
asI1494
(lp804
I0
aI6
aI8
asI1495
(lp805
I0
aI2
aI5
aI6
aI8
asI1497
(lp806
I8
asI1502
(lp807
I0
aI3
aI8
asI1503
(lp808
I0
aI3
aI8
asI1504
(lp809
I1
aI2
aI3
aI4
aI5
aI6
asI1505
(lp810
I8
asI1507
(lp811
I0
aI1
aI8
asI1512
(lp812
I3
aI8
asI1513
(lp813
I2
aI3
aI5
aI6
aI8
asI1515
(lp814
I0
aI6
aI8
asI1516
(lp815
I2
aI3
aI5
aI6
aI8
asI1517
(lp816
I3
aI6
aI8
asI1519
(lp817
I1
aI2
aI4
aI5
aI6
aI7
asI1521
(lp818
I0
aI8
asI1525
(lp819
I3
aI5
aI6
aI7
asI1527
(lp820
I0
aI2
aI3
aI4
aI5
aI6
aI8
asI1528
(lp821
I0
aI2
aI6
aI8
asI1530
(lp822
I0
aI3
aI5
aI8
asI1533
(lp823
I5
aI6
aI8
asI1535
(lp824
I0
aI2
aI5
aI6
aI8
asI1536
(lp825
I1
aI2
aI3
aI5
aI6
aI8
asI1537
(lp826
I0
aI2
aI3
aI6
aI8
asI1539
(lp827
I8
asI1544
(lp828
I0
aI3
aI5
aI8
asI1545
(lp829
I1
aI2
aI3
aI4
aI5
aI6
asI1546
(lp830
I5
aI6
aI8
asI1552
(lp831
I1
aI2
aI3
aI4
aI5
aI6
aI8
asI1554
(lp832
I0
aI1
aI3
aI4
aI5
aI6
asI1556
(lp833
I0
aI2
aI3
aI4
aI5
aI6
aI7
asI1558
(lp834
I8
asI1560
(lp835
I3
aI8
asI1563
(lp836
I1
aI2
aI4
aI5
aI6
aI7
asI1564
(lp837
I1
aI2
aI3
aI4
aI5
aI6
aI7
aI8
asI1565
(lp838
I1
aI2
aI4
aI5
aI6
aI7
asI1566
(lp839
I0
aI3
aI8
asI1567
(lp840
I1
aI2
aI3
aI4
aI5
aI6
aI7
asI1568
(lp841
I3
aI4
aI6
aI8
asI1570
(lp842
I0
aI2
aI3
aI5
aI6
asI1572
(lp843
I1
aI2
aI4
aI5
aI6
asI1574
(lp844
I0
aI5
aI8
asI1577
(lp845
I1
aI2
aI3
aI4
aI5
aI6
aI7
asI1579
(lp846
I1
aI2
aI3
aI4
aI5
aI6
aI7
asI1582
(lp847
I2
aI3
aI5
aI6
aI8
asI1583
(lp848
I0
aI1
aI2
aI5
aI6
aI7
asI1584
(lp849
I1
aI2
aI3
aI5
aI6
asI1586
(lp850
I1
aI2
aI3
aI4
aI5
aI6
asI1587
(lp851
I0
aI8
asI1588
(lp852
I6
aI8
asI1589
(lp853
I0
aI3
aI5
aI6
aI8
asI1590
(lp854
I0
aI8
asI1591
(lp855
I0
aI5
aI8
asI1592
(lp856
I1
aI2
aI4
aI6
aI7
asI1593
(lp857
I1
aI2
aI4
aI5
aI6
aI7
asI1594
(lp858
I2
aI4
aI5
aI6
aI7
asI1601
(lp859
I1
aI2
aI3
aI5
aI6
aI8
asI1602
(lp860
I1
aI2
aI5
aI6
aI8
asI1605
(lp861
I1
aI8
asI1606
(lp862
I1
aI2
aI3
aI5
aI6
aI8
asI1607
(lp863
I3
aI5
aI6
aI8
asI1609
(lp864
I3
aI8
asI1611
(lp865
I1
aI2
aI3
aI4
aI5
aI6
aI7
asI1613
(lp866
I1
aI8
asI1615
(lp867
I0
aI1
aI3
aI5
aI7
aI8
asI1617
(lp868
I0
aI3
aI8
asI1618
(lp869
I0
aI3
aI8
asI1620
(lp870
I0
aI1
aI2
aI3
aI8
asI1624
(lp871
I1
aI2
aI3
aI4
aI5
aI6
aI8
asI1626
(lp872
I0
aI3
aI5
aI8
asI1630
(lp873
I1
aI2
aI3
aI4
aI5
aI6
aI7
asI1631
(lp874
I1
aI2
aI5
aI6
asI1633
(lp875
I0
aI3
aI8
asI1634
(lp876
I1
aI2
aI4
aI5
aI6
aI7
asI1637
(lp877
I0
aI8
asI1638
(lp878
I8
asI1639
(lp879
I0
aI8
asI1640
(lp880
I0
aI3
aI8
asI1641
(lp881
I0
aI1
aI2
aI6
aI8
asI1642
(lp882
I0
aI5
aI8
asI1644
(lp883
I0
aI3
aI5
aI6
aI8
asI1645
(lp884
I1
aI2
aI3
aI5
aI6
aI7
asI1646
(lp885
I1
aI2
aI4
aI5
aI6
aI7
asI1647
(lp886
I1
aI2
aI3
aI5
aI6
asI1651
(lp887
I3
aI8
asI1653
(lp888
I0
aI1
aI6
aI8
asI1654
(lp889
I1
aI2
aI5
aI6
asI1656
(lp890
I3
aI8
asI1658
(lp891
I0
aI1
aI3
aI8
asI1661
(lp892
I1
aI2
aI4
aI5
aI6
aI7
asI1664
(lp893
I0
aI1
aI8
asI1667
(lp894
I1
aI2
aI4
aI5
aI6
aI7
asI1668
(lp895
I1
aI5
aI6
asI1670
(lp896
I3
aI8
asI1672
(lp897
I0
aI5
aI8
asI1674
(lp898
I1
aI2
aI3
aI4
aI5
aI6
asI1677
(lp899
I6
aI8
asI1680
(lp900
I1
aI2
aI3
aI4
aI5
aI6
aI7
asI1688
(lp901
I1
aI3
aI6
aI8
asI1691
(lp902
I1
aI2
aI3
aI5
aI6
aI8
asI1696
(lp903
I1
aI2
aI4
aI5
aI6
aI7
asI1697
(lp904
I0
aI2
aI5
aI6
aI8
asI1698
(lp905
I1
aI2
aI3
aI4
aI5
aI6
aI7
asI1699
(lp906
I0
aI8
asI1705
(lp907
I2
aI5
aI6
asI1706
(lp908
I2
aI3
aI5
aI6
aI7
asI1709
(lp909
I1
aI2
aI5
aI6
aI7
aI8
asI1710
(lp910
I0
aI1
aI8
asI1712
(lp911
I5
aI6
aI8
asI1717
(lp912
I1
aI2
aI4
aI5
aI6
aI7
asI1719
(lp913
I6
aI8
asI1724
(lp914
I1
aI2
aI3
aI4
aI5
aI6
aI7
asI1725
(lp915
I1
aI2
aI3
aI4
aI5
aI6
aI7
asI1730
(lp916
I0
aI8
asI1733
(lp917
I0
asI1734
(lp918
I1
aI2
aI4
aI5
aI6
aI7
asI1735
(lp919
I3
aI8
asI1737
(lp920
I1
aI2
aI4
aI6
aI7
asI1738
(lp921
I1
aI2
aI3
aI4
aI5
aI6
aI7
asI1740
(lp922
I0
aI1
aI2
aI5
aI6
aI8
asI1743
(lp923
I0
aI1
aI8
asI1748
(lp924
I1
aI2
aI4
aI5
aI6
aI7
asI1749
(lp925
I1
aI2
aI5
aI6
aI8
asI1750
(lp926
I0
aI8
asI1751
(lp927
I1
aI2
aI4
aI5
aI6
aI7
asI1753
(lp928
I0
aI3
aI8
asI1754
(lp929
I0
aI3
aI8
asI1758
(lp930
I1
aI2
aI4
aI5
aI6
aI7
asI1759
(lp931
I2
aI5
aI6
aI7
aI8
asI1760
(lp932
I1
aI3
aI5
aI6
aI8
asI1762
(lp933
I1
aI2
aI4
aI5
aI6
asI1763
(lp934
I1
aI2
aI3
aI4
aI5
aI6
aI7
asI1765
(lp935
I1
aI2
aI5
aI6
asI1767
(lp936
I0
aI3
aI8
asI1768
(lp937
I0
aI3
aI8
asI1772
(lp938
I1
aI2
aI4
aI5
aI6
aI7
asI1773
(lp939
I1
aI2
aI3
aI4
aI5
aI6
aI7
asI1776
(lp940
I0
aI1
aI2
aI5
aI6
aI8
asI1777
(lp941
I0
aI8
asI1779
(lp942
I0
aI3
asI1780
(lp943
I1
aI3
aI6
aI8
asI1783
(lp944
I1
aI2
aI3
aI5
aI6
aI7
asI1786
(lp945
I0
aI3
aI5
aI8
asI1788
(lp946
I0
aI5
aI8
asI1791
(lp947
I1
aI2
aI4
aI5
aI6
aI7
asI1793
(lp948
I1
aI2
aI4
aI5
aI6
aI7
asI1794
(lp949
I0
aI8
asI1795
(lp950
I1
aI2
aI4
aI5
aI6
asI1796
(lp951
I1
aI5
aI6
aI8
asI1799
(lp952
I0
aI2
aI6
aI8
asI1800
(lp953
I1
aI2
aI3
aI4
aI5
aI6
asI1801
(lp954
I1
aI2
aI5
aI6
aI8
asI1806
(lp955
I6
aI8
asI1810
(lp956
I1
aI2
aI3
aI4
aI5
aI6
aI7
asI1811
(lp957
I1
aI2
aI3
aI4
aI5
aI6
aI8
asI1812
(lp958
I3
aI5
aI6
asI1814
(lp959
I1
aI2
aI4
aI5
aI6
aI7
aI8
asI1820
(lp960
I6
aI8
asI1822
(lp961
I6
aI8
asI1823
(lp962
I1
aI2
aI3
aI4
aI5
aI6
aI7
asI1824
(lp963
I1
aI2
aI3
aI6
aI7
asI1830
(lp964
I1
aI2
aI3
aI4
aI5
aI6
aI8
asI1831
(lp965
I0
aI3
aI8
asI1835
(lp966
I1
aI2
aI4
aI5
aI6
aI7
asI1836
(lp967
I5
aI6
aI8
asI1837
(lp968
I1
aI5
aI6
asI1839
(lp969
I2
aI5
aI6
asI1840
(lp970
I1
aI2
aI3
aI5
aI6
aI7
asI1842
(lp971
I1
aI2
aI4
aI5
aI6
aI8
asI1843
(lp972
I1
aI2
aI3
aI4
aI5
aI6
asI1845
(lp973
I0
aI1
aI2
aI5
aI6
aI8
asI1850
(lp974
I0
aI8
asI1851
(lp975
I0
aI1
aI2
aI5
aI6
aI8
asI1853
(lp976
I0
aI8
asI1854
(lp977
I3
aI5
aI6
asI1856
(lp978
I1
aI2
aI3
aI4
aI5
aI6
aI7
aI8
asI1862
(lp979
I0
aI1
aI2
aI5
aI6
aI7
aI8
asI1864
(lp980
I1
aI8
asI1865
(lp981
I1
aI2
aI6
asI1866
(lp982
I6
aI8
asI1869
(lp983
I1
aI2
aI5
aI6
aI8
asI1873
(lp984
I6
aI8
asI1875
(lp985
I1
aI2
aI5
aI6
aI7
aI8
asI1877
(lp986
I0
aI1
aI3
aI5
aI6
aI8
asI1880
(lp987
I0
aI1
aI2
aI3
aI5
aI6
aI7
aI8
asI1882
(lp988
I0
aI8
asI1883
(lp989
I8
asI1885
(lp990
I1
aI2
aI3
aI5
aI6
aI7
asI1889
(lp991
I0
aI2
aI3
aI4
aI5
aI6
aI7
aI8
asI1890
(lp992
I1
aI2
aI4
aI5
aI6
asI1894
(lp993
I6
aI8
asI1897
(lp994
I1
aI2
aI3
aI5
aI6
aI7
aI8
asI1898
(lp995
I0
aI8
asI1902
(lp996
I8
asI1903
(lp997
I0
aI1
aI8
asI1904
(lp998
I8
asI1905
(lp999
I1
aI2
aI3
aI4
aI5
aI6
aI7
asI1907
(lp1000
I8
asI1908
(lp1001
I0
aI2
aI5
aI6
aI8
asI1909
(lp1002
I3
aI8
asI1910
(lp1003
I1
aI3
aI5
aI6
asI1912
(lp1004
I1
aI2
aI4
aI5
aI6
aI7
asI1913
(lp1005
I5
aI6
asI1915
(lp1006
I2
aI3
aI5
aI6
aI7
aI8
asI1919
(lp1007
I0
aI3
aI5
aI6
aI8
asI1922
(lp1008
I1
aI2
aI4
aI5
aI6
aI7
asI1924
(lp1009
I2
aI3
aI8
asI1925
(lp1010
I2
aI4
aI5
aI6
asI1929
(lp1011
I0
aI3
aI5
aI8
asI1930
(lp1012
I0
aI1
aI2
aI3
aI5
aI6
aI7
asI1931
(lp1013
I2
aI6
asI1932
(lp1014
I6
aI8
asI1937
(lp1015
I1
aI2
aI3
aI4
aI5
aI6
aI7
asI1938
(lp1016
I0
aI8
asI1940
(lp1017
I1
aI2
aI6
aI8
asI1941
(lp1018
I0
aI1
aI3
aI5
aI8
asI1944
(lp1019
I3
aI8
asI1946
(lp1020
I1
aI2
aI4
aI5
aI6
aI7
asI1947
(lp1021
I0
aI3
aI5
aI8
asI1948
(lp1022
I0
aI3
aI8
asI1952
(lp1023
I1
aI2
aI3
aI5
aI6
aI7
asI1954
(lp1024
I0
aI1
aI2
aI3
aI4
aI5
aI6
aI7
aI8
asI1955
(lp1025
I0
aI3
aI8
asI1958
(lp1026
I1
aI2
aI3
aI5
aI6
aI8
asI1959
(lp1027
I1
aI2
aI5
aI6
aI8
asI1962
(lp1028
I3
aI5
aI6
aI8
asI1966
(lp1029
I1
aI2
aI4
aI5
aI6
asI1968
(lp1030
I1
aI2
aI3
aI4
aI5
aI6
aI7
asI1969
(lp1031
I1
aI2
aI4
aI5
aI6
aI7
asI1970
(lp1032
I0
aI8
asI1973
(lp1033
I0
aI1
aI2
aI3
aI4
aI5
aI6
asI1974
(lp1034
I1
aI2
aI4
aI5
aI6
aI7
asI1975
(lp1035
I0
aI3
aI8
asI1978
(lp1036
I1
aI2
aI3
aI4
aI5
aI6
aI7
asI1979
(lp1037
I3
aI8
asI1980
(lp1038
I1
aI2
aI3
aI5
aI6
asI1985
(lp1039
I0
aI3
aI5
aI8
asI1990
(lp1040
I0
aI1
aI3
asI1991
(lp1041
I0
aI3
aI5
aI6
aI8
asI1993
(lp1042
I3
aI8
asI1994
(lp1043
I1
aI2
aI3
aI4
aI5
aI6
aI7
asI1996
(lp1044
I1
aI2
aI3
aI5
aI6
aI7
aI8
asI1997
(lp1045
I0
aI3
aI4
aI5
asI2000
(lp1046
I3
aI8
asI2006
(lp1047
I1
aI2
aI3
aI4
aI5
aI6
aI7
asI2007
(lp1048
I1
aI2
aI3
aI5
aI6
aI7
asI2009
(lp1049
I1
aI2
aI3
aI5
aI6
aI7
asI2011
(lp1050
I1
aI2
aI3
aI4
aI5
aI6
aI7
asI2014
(lp1051
I1
aI2
aI4
aI5
aI6
asI2015
(lp1052
I8
asI2017
(lp1053
I0
aI3
aI5
aI8
asI2018
(lp1054
I0
aI2
aI6
aI8
asI2020
(lp1055
I0
aI3
aI8
asI2021
(lp1056
I2
aI5
aI6
aI8
asI2023
(lp1057
I5
aI8
asI2024
(lp1058
I1
aI2
aI5
aI6
aI7
aI8
asI2025
(lp1059
I3
aI8
asI2031
(lp1060
I3
aI5
aI6
asI2032
(lp1061
I2
aI6
aI8
asI2033
(lp1062
I1
aI2
aI3
aI4
aI5
aI6
aI8
asI2035
(lp1063
I1
aI2
aI3
aI4
aI5
aI6
asI2036
(lp1064
I6
aI8
asI2037
(lp1065
I5
aI6
aI8
asI2038
(lp1066
I1
aI2
aI3
aI4
aI5
aI6
aI7
aI8
asI2043
(lp1067
I1
aI2
aI5
aI6
aI7
asI2046
(lp1068
I6
aI8
asI2047
(lp1069
I1
aI2
aI6
aI7
aI8
asI2048
(lp1070
I3
aI8
asI2049
(lp1071
I3
aI5
aI8
asI2050
(lp1072
I0
aI3
aI5
aI8
asI2052
(lp1073
I3
aI8
asI2056
(lp1074
I3
aI6
aI8
asI2058
(lp1075
I0
aI3
aI8
asI2060
(lp1076
I6
aI8
asI2061
(lp1077
I6
aI8
asI2062
(lp1078
I0
aI3
aI5
aI6
aI8
asI2063
(lp1079
I0
aI3
aI5
aI8
asI2065
(lp1080
I1
aI2
aI4
aI5
aI6
aI7
asI2066
(lp1081
I0
aI8
asI2069
(lp1082
I1
aI2
aI3
aI4
aI5
aI6
asI2070
(lp1083
I1
aI2
aI4
aI5
aI6
aI7
aI8
asI2071
(lp1084
I1
aI2
aI5
aI6
aI8
asI2072
(lp1085
I0
aI2
aI3
aI5
aI6
aI7
aI8
asI2078
(lp1086
I1
aI2
aI4
aI5
aI6
aI7
asI2086
(lp1087
I1
aI2
aI4
aI5
aI6
asI2088
(lp1088
I3
aI6
aI8
asI2090
(lp1089
I1
aI2
aI3
aI4
aI5
aI6
aI7
asI2092
(lp1090
I1
aI2
aI4
aI5
aI6
aI7
asI2094
(lp1091
I0
aI2
aI6
aI8
asI2095
(lp1092
I1
aI2
aI3
aI4
aI5
aI6
asI2101
(lp1093
I2
aI5
aI8
asI2104
(lp1094
I1
aI5
asI2106
(lp1095
I0
aI1
aI8
asI2107
(lp1096
I1
aI2
aI4
aI5
aI6
asI2108
(lp1097
I6
aI8
asI2109
(lp1098
I0
aI8
asI2111
(lp1099
I0
aI2
aI3
aI5
aI6
asI2116
(lp1100
I0
aI3
aI8
asI2117
(lp1101
I1
aI2
aI3
aI5
aI6
aI7
asI2118
(lp1102
I6
aI8
asI2119
(lp1103
I0
aI3
aI8
asI2120
(lp1104
I3
aI8
asI2121
(lp1105
I2
aI4
aI5
aI6
asI2122
(lp1106
I1
aI2
aI3
aI4
aI5
aI6
asI2124
(lp1107
I1
aI5
aI6
asI2125
(lp1108
I0
aI1
aI5
aI6
aI8
asI2126
(lp1109
I1
aI2
aI4
aI5
aI6
asI2127
(lp1110
I8
asI2130
(lp1111
I3
aI7
aI8
asI2133
(lp1112
I1
aI2
aI5
aI6
aI8
asI2134
(lp1113
I0
aI3
aI5
asI2136
(lp1114
I1
aI2
aI3
aI4
aI5
aI6
aI7
aI8
asI2137
(lp1115
I0
aI8
asI2139
(lp1116
I0
aI8
asI2140
(lp1117
I1
aI2
aI4
aI5
aI6
aI7
asI2141
(lp1118
I5
aI6
aI8
asI2142
(lp1119
I0
aI1
aI8
asI2146
(lp1120
I1
aI2
aI5
aI6
aI7
asI2147
(lp1121
I5
aI6
asI2155
(lp1122
I5
aI6
aI8
asI2157
(lp1123
I1
aI2
aI3
aI5
aI6
aI8
asI2159
(lp1124
I3
aI6
aI8
asI2161
(lp1125
I1
aI2
aI3
aI5
aI6
aI7
asI2162
(lp1126
I1
aI2
aI3
aI5
aI6
aI8
asI2164
(lp1127
I1
aI2
aI3
aI5
aI6
aI7
asI2166
(lp1128
I1
aI2
aI5
aI6
asI2170
(lp1129
I1
aI2
aI4
aI5
aI6
asI2171
(lp1130
I0
aI3
aI5
aI8
asI2173
(lp1131
I1
aI6
aI8
asI2176
(lp1132
I0
aI3
aI5
aI8
asI2181
(lp1133
I0
aI2
aI3
aI5
aI6
aI8
asI2184
(lp1134
I0
aI6
aI8
asI2185
(lp1135
I1
aI2
aI4
aI5
aI6
aI7
asI2186
(lp1136
I1
aI2
aI4
aI6
aI7
asI2188
(lp1137
I0
aI1
aI2
aI3
aI5
aI6
aI8
asI2191
(lp1138
I3
aI6
aI8
asI2192
(lp1139
I6
aI8
asI2193
(lp1140
I6
aI8
asI2197
(lp1141
I1
aI2
aI3
aI5
aI6
aI8
asI2200
(lp1142
I1
aI2
aI4
aI5
aI6
aI7
asI2210
(lp1143
I0
aI3
aI8
asI2213
(lp1144
I0
aI3
aI8
asI2215
(lp1145
I6
aI8
asI2218
(lp1146
I1
aI2
aI5
aI6
aI8
asI2222
(lp1147
I6
aI8
asI2223
(lp1148
I1
aI2
aI3
aI4
aI5
aI6
aI7
asI2225
(lp1149
I0
aI3
aI8
asI2227
(lp1150
I0
aI6
aI8
asI2228
(lp1151
I2
aI5
aI6
aI8
asI2230
(lp1152
I1
aI5
aI6
aI7
asI2234
(lp1153
I3
aI8
asI2235
(lp1154
I5
aI8
asI2236
(lp1155
I3
aI5
aI6
aI8
asI2237
(lp1156
I0
aI1
aI3
aI5
aI8
asI2240
(lp1157
I1
aI2
aI4
aI5
aI6
aI7
aI8
asI2241
(lp1158
I1
aI2
aI3
aI5
aI6
aI7
asI2243
(lp1159
I1
aI2
aI5
aI6
asI2246
(lp1160
I3
aI8
asI2247
(lp1161
I1
aI2
aI3
aI5
aI6
asI2249
(lp1162
I1
aI2
aI4
aI5
aI6
aI7
asI2250
(lp1163
I1
aI2
aI4
aI5
aI6
aI7
asI2252
(lp1164
I3
aI5
aI8
asI2253
(lp1165
I1
aI2
aI5
aI6
aI7
asI2254
(lp1166
I0
aI3
aI5
aI8
asI2255
(lp1167
I0
aI3
aI8
asI2256
(lp1168
I0
aI2
aI6
aI8
asI2259
(lp1169
I0
aI2
aI4
aI5
aI6
aI7
aI8
asI2260
(lp1170
I1
aI2
aI3
aI4
aI5
aI6
aI7
asI2263
(lp1171
I1
aI2
aI3
aI8
asI2265
(lp1172
I0
aI3
aI5
aI6
asI2266
(lp1173
I1
aI2
aI5
aI6
aI8
asI2267
(lp1174
I1
aI2
aI3
aI4
aI5
aI6
aI7
aI8
asI2280
(lp1175
I0
aI2
aI4
aI5
aI6
aI7
aI8
asI2285
(lp1176
I5
aI8
asI2287
(lp1177
I8
asI2288
(lp1178
I2
aI3
aI4
aI5
aI6
asI2290
(lp1179
I0
aI2
aI3
aI5
aI6
aI8
asI2291
(lp1180
I0
aI3
aI8
asI2292
(lp1181
I1
aI5
asI2294
(lp1182
I2
aI3
aI5
aI6
aI8
asI2296
(lp1183
I1
aI2
aI5
aI6
aI7
asI2298
(lp1184
I1
aI2
aI3
aI4
aI5
aI6
aI7
asI2299
(lp1185
I0
aI3
aI8
asI2300
(lp1186
I8
asI2301
(lp1187
I1
aI2
aI5
aI6
aI7
aI8
asI2302
(lp1188
I1
aI2
aI3
aI4
aI5
aI6
aI7
asI2303
(lp1189
I0
aI3
aI8
asI2305
(lp1190
I6
aI8
asI2306
(lp1191
I0
aI6
aI8
asI2308
(lp1192
I1
aI2
aI4
aI5
aI6
asI2312
(lp1193
I3
aI5
aI6
aI7
asI2315
(lp1194
I1
aI2
aI3
aI4
aI5
aI6
aI7
asI2317
(lp1195
I1
aI2
aI4
aI5
aI6
aI7
aI8
asI2319
(lp1196
I1
aI2
aI4
aI5
aI6
aI7
asI2320
(lp1197
I1
aI2
aI5
aI6
aI7
aI8
asI2321
(lp1198
I1
aI2
aI3
aI4
aI5
aI6
asI2323
(lp1199
I0
aI2
aI5
aI8
asI2324
(lp1200
I0
aI8
asI2325
(lp1201
I1
aI2
aI3
aI5
aI6
asI2329
(lp1202
I3
aI5
aI6
aI8
asI2332
(lp1203
I1
aI2
aI4
aI5
aI6
aI7
asI2334
(lp1204
I6
aI8
asI2335
(lp1205
I1
aI2
aI3
aI4
aI5
aI6
aI7
asI2336
(lp1206
I2
aI3
aI6
aI8
asI2337
(lp1207
I1
aI2
aI4
aI5
aI6
aI7
asI2339
(lp1208
I1
aI2
aI4
aI5
aI6
asI2342
(lp1209
I1
aI2
aI5
aI6
aI7
aI8
asI2344
(lp1210
I0
aI5
aI6
asI2346
(lp1211
I1
aI2
aI6
aI8
asI2347
(lp1212
I0
aI1
aI8
asI2352
(lp1213
I1
aI2
aI4
aI5
aI6
aI7
asI2355
(lp1214
I1
aI2
aI4
aI5
aI6
aI7
aI8
asI2356
(lp1215
I0
aI8
asI2357
(lp1216
I0
aI3
aI8
asI2358
(lp1217
I3
aI8
asI2360
(lp1218
I1
aI2
aI4
aI5
aI6
aI7
asI2362
(lp1219
I0
aI1
aI8
asI2364
(lp1220
I8
asI2367
(lp1221
I1
aI2
aI4
aI5
aI6
aI7
asI2368
(lp1222
I1
aI2
aI3
aI5
aI6
aI8
asI2369
(lp1223
I0
aI3
aI5
aI8
asI2372
(lp1224
I0
aI3
aI8
asI2379
(lp1225
I1
aI2
aI3
aI4
aI5
aI6
asI2380
(lp1226
I1
aI2
aI5
aI6
aI7
asI2381
(lp1227
I6
aI8
asI2386
(lp1228
I0
aI8
asI2390
(lp1229
I0
aI1
aI3
aI8
asI2391
(lp1230
I1
aI2
aI3
aI8
asI2398
(lp1231
I1
aI2
aI4
aI5
aI6
aI7
asI2400
(lp1232
I1
aI2
aI4
aI5
aI6
aI7
asI2401
(lp1233
I1
aI2
aI3
aI4
aI5
aI6
asI2402
(lp1234
I0
aI1
aI3
aI8
asI2404
(lp1235
I6
aI8
asI2405
(lp1236
I1
aI2
aI4
aI5
aI6
aI7
asI2408
(lp1237
I0
aI1
aI2
aI5
aI8
asI2409
(lp1238
I0
aI2
aI3
aI4
aI5
aI6
aI7
asI2411
(lp1239
I2
aI3
aI5
aI6
asI2413
(lp1240
I3
aI8
asI2414
(lp1241
I0
aI1
aI2
aI3
aI4
aI5
aI6
aI7
asI2416
(lp1242
I1
aI2
aI5
aI6
aI8
asI2417
(lp1243
I1
aI2
aI3
aI4
aI5
aI6
aI7
asI2422
(lp1244
I1
aI2
aI4
aI5
aI6
asI2423
(lp1245
I1
aI2
aI3
aI5
aI6
asI2424
(lp1246
I0
aI1
aI2
aI5
aI6
aI8
asI2425
(lp1247
I3
aI8
asI2426
(lp1248
I1
aI2
aI3
aI4
aI5
aI6
asI2427
(lp1249
I0
aI8
asI2434
(lp1250
I3
aI8
asI2437
(lp1251
I3
aI8
asI2438
(lp1252
I2
aI3
aI5
aI6
aI8
asI2439
(lp1253
I1
aI2
aI3
aI4
aI5
aI6
asI2443
(lp1254
I0
aI3
aI5
aI8
asI2444
(lp1255
I2
aI5
aI6
aI8
asI2445
(lp1256
I3
aI8
asI2450
(lp1257
I0
aI1
aI4
aI5
aI6
aI8
asI2451
(lp1258
I2
aI4
aI5
aI6
aI7
aI8
asI2454
(lp1259
I2
aI3
aI5
aI6
aI7
asI2456
(lp1260
I1
aI2
aI4
aI5
aI6
aI7
asI2457
(lp1261
I1
aI2
aI3
aI5
aI6
aI7
aI8
asI2460
(lp1262
I1
aI2
aI4
aI5
aI6
aI7
asI2461
(lp1263
I3
aI5
aI6
aI7
aI8
asI2463
(lp1264
I0
aI3
aI8
asI2464
(lp1265
I1
aI2
aI3
aI4
aI5
aI6
aI7
asI2465
(lp1266
I3
aI8
asI2468
(lp1267
I8
asI2469
(lp1268
I0
aI1
aI3
aI5
aI6
asI2470
(lp1269
I0
aI8
asI2473
(lp1270
I3
asI2474
(lp1271
I0
aI3
aI8
asI2477
(lp1272
I1
aI2
aI3
aI4
aI5
aI6
aI7
asI2480
(lp1273
I1
aI2
aI3
aI4
aI5
aI6
aI7
asI2483
(lp1274
I1
aI2
aI5
aI6
aI7
asI2484
(lp1275
I0
aI3
aI8
asI2487
(lp1276
I1
aI2
aI5
aI6
asI2489
(lp1277
I1
aI2
aI5
aI6
aI8
asI2491
(lp1278
I8
asI2492
(lp1279
I1
aI5
aI6
asI2493
(lp1280
I1
aI2
aI3
aI5
aI6
aI7
asI2494
(lp1281
I1
aI2
aI4
aI5
aI6
aI7
asI2495
(lp1282
I0
aI8
asI2496
(lp1283
I3
aI4
aI6
asI2498
(lp1284
I0
aI1
aI6
aI8
asI2500
(lp1285
I1
aI2
aI4
aI5
aI6
aI8
asI2505
(lp1286
I0
aI1
aI6
aI8
asI2506
(lp1287
I2
aI3
aI5
aI6
aI7
aI8
asI2515
(lp1288
I0
aI3
aI8
asI2517
(lp1289
I0
aI3
aI5
aI8
asI2519
(lp1290
I1
aI2
aI3
aI4
aI5
aI6
aI7
asI2525
(lp1291
I0
aI3
aI5
aI6
aI8
asI2527
(lp1292
I3
aI8
asI2529
(lp1293
I1
aI3
aI5
aI6
asI2530
(lp1294
I0
aI3
aI8
asI2533
(lp1295
I1
aI2
aI5
aI6
aI7
aI8
asI2535
(lp1296
I3
aI8
asI2536
(lp1297
I3
aI6
aI8
asI2538
(lp1298
I1
aI4
aI5
aI6
asI2540
(lp1299
I0
aI3
aI8
asI2543
(lp1300
I0
aI1
aI2
aI3
aI5
aI6
aI7
aI8
asI2544
(lp1301
I1
aI8
asI2546
(lp1302
I1
aI2
aI4
aI5
aI6
aI7
asI2548
(lp1303
I1
aI2
aI5
aI6
aI7
asI2549
(lp1304
I1
aI2
aI3
aI5
aI6
aI7
asI2551
(lp1305
I0
aI1
aI3
aI5
aI8
asI2554
(lp1306
I1
aI2
aI4
aI5
aI6
aI7
aI8
asI2557
(lp1307
I0
aI8
asI2558
(lp1308
I1
aI2
aI3
aI4
aI5
aI6
aI7
asI2560
(lp1309
I0
aI2
aI3
aI5
aI6
aI8
asI2561
(lp1310
I1
aI5
aI6
aI8
asI2562
(lp1311
I2
aI5
aI6
asI2563
(lp1312
I2
aI3
aI5
aI6
asI2566
(lp1313
I3
aI5
aI6
aI8
asI2568
(lp1314
I1
aI2
aI5
aI6
asI2570
(lp1315
I1
aI2
aI3
aI4
aI5
aI6
aI7
asI2575
(lp1316
I3
aI8
asI2576
(lp1317
I0
aI3
aI8
asI2577
(lp1318
I0
aI1
aI5
aI6
aI8
asI2581
(lp1319
I1
aI2
aI4
aI5
aI6
aI7
asI2583
(lp1320
I0
aI3
aI8
asI2586
(lp1321
I2
aI3
aI4
aI5
aI6
aI7
aI8
asI2587
(lp1322
I3
aI6
aI8
asI2588
(lp1323
I1
aI6
asI2591
(lp1324
I1
aI2
aI4
aI5
aI6
aI7
asI2592
(lp1325
I0
aI3
aI8
asI2594
(lp1326
I0
aI3
aI8
asI2598
(lp1327
I1
aI2
aI3
aI5
aI6
asI2601
(lp1328
I1
aI2
aI4
aI5
aI6
aI7
asI2602
(lp1329
I1
aI2
aI3
aI4
aI5
aI6
aI7
asI2604
(lp1330
I1
aI2
aI3
aI5
aI6
asI2605
(lp1331
I0
aI1
aI2
aI3
aI4
aI5
aI6
aI7
asI2606
(lp1332
I1
aI2
aI3
aI5
aI6
aI7
asI2607
(lp1333
I1
aI2
aI4
aI5
aI6
aI7
asI2609
(lp1334
I1
aI2
aI5
aI6
aI8
asI2610
(lp1335
I5
aI6
aI8
asI2611
(lp1336
I1
aI2
aI4
aI5
aI6
aI7
asI2612
(lp1337
I0
aI3
aI8
asI2614
(lp1338
I0
aI3
aI8
asI2618
(lp1339
I1
aI2
aI3
aI4
aI5
aI6
aI7
asI2619
(lp1340
I1
aI8
asI2620
(lp1341
I2
aI3
aI6
aI8
asI2621
(lp1342
I3
aI5
aI6
asI2624
(lp1343
I0
aI3
aI8
asI2626
(lp1344
I1
aI2
aI4
aI5
aI6
aI7
asI2627
(lp1345
I1
aI2
aI3
aI4
aI6
aI7
asI2628
(lp1346
I3
aI8
asI2635
(lp1347
I2
aI3
aI5
aI6
asI2636
(lp1348
I1
aI2
aI3
aI5
aI6
aI8
asI2637
(lp1349
I1
aI2
aI3
aI5
aI6
asI2640
(lp1350
I1
aI2
aI3
aI4
aI5
aI6
aI7
asI2643
(lp1351
I1
aI5
aI6
asI2646
(lp1352
I1
aI5
aI6
asI2647
(lp1353
I3
aI5
aI6
aI8
asI2650
(lp1354
I1
aI2
aI3
aI4
aI5
aI6
aI7
asI2651
(lp1355
I1
aI2
aI4
aI5
aI6
aI7
asI2653
(lp1356
I0
aI1
aI3
aI8
asI2659
(lp1357
I0
aI8
asI2662
(lp1358
I1
aI2
aI4
aI5
aI6
aI7
aI8
asI2664
(lp1359
I5
aI8
asI2665
(lp1360
I1
aI3
aI5
aI8
asI2666
(lp1361
I3
aI8
asI2671
(lp1362
I1
aI2
aI5
aI6
asI2673
(lp1363
I0
aI1
aI3
aI5
aI8
asI2674
(lp1364
I3
aI8
asI2675
(lp1365
I1
aI2
aI3
aI4
aI5
aI6
aI7
aI8
asI2677
(lp1366
I0
aI3
aI8
asI2678
(lp1367
I1
aI2
aI3
aI4
aI5
aI6
aI7
asI2680
(lp1368
I0
aI3
aI5
aI8
asI2681
(lp1369
I3
aI8
asI2683
(lp1370
I1
aI2
aI4
aI5
aI6
aI7
asI2685
(lp1371
I0
aI1
aI3
aI8
asI2686
(lp1372
I5
aI6
aI8
asI2687
(lp1373
I1
aI2
aI5
aI6
aI7
asI2688
(lp1374
I1
aI2
aI3
aI5
aI6
aI7
asI2689
(lp1375
I1
aI2
aI3
aI4
aI5
aI6
aI7
asI2690
(lp1376
I1
aI2
aI3
aI4
aI5
aI6
aI7
asI2691
(lp1377
I0
aI1
aI2
aI6
aI8
asI2693
(lp1378
I2
aI3
aI4
aI5
aI6
aI7
asI2696
(lp1379
I1
aI2
aI3
aI5
aI6
aI7
asI2697
(lp1380
I1
aI3
aI4
aI5
aI6
aI7
aI8
asI2699
(lp1381
I8
asI2707
(lp1382
I6
aI8
asI2710
(lp1383
I0
aI1
aI8
asI2714
(lp1384
I8
asI2716
(lp1385
I1
aI2
aI3
aI5
aI6
aI7
aI8
asI2717
(lp1386
I0
aI8
asI2719
(lp1387
I0
aI8
asI2722
(lp1388
I3
aI8
asI2726
(lp1389
I1
aI2
aI3
aI5
aI6
aI8
asI2727
(lp1390
I1
aI2
aI4
aI5
aI6
aI7
asI2730
(lp1391
I1
aI2
aI3
aI4
aI5
aI6
asI2731
(lp1392
I1
aI8
asI2736
(lp1393
I1
aI2
aI5
aI6
aI7
aI8
asI2738
(lp1394
I2
aI5
aI6
asI2742
(lp1395
I3
aI5
aI6
asI2745
(lp1396
I0
aI2
aI3
aI5
aI6
aI8
asI2748
(lp1397
I0
aI8
asI2750
(lp1398
I0
aI3
aI8
asI2751
(lp1399
I8
asI2753
(lp1400
I1
aI2
aI4
aI5
aI6
aI7
asI2755
(lp1401
I5
aI6
aI8
asI2756
(lp1402
I1
aI2
aI3
aI4
aI5
aI6
aI7
asI2757
(lp1403
I0
aI8
asI2759
(lp1404
I0
aI3
aI8
asI2760
(lp1405
I1
aI2
aI3
aI5
aI6
asI2761
(lp1406
I0
aI3
aI6
asI2762
(lp1407
I0
aI8
asI2769
(lp1408
I1
aI2
aI3
aI4
aI5
aI6
aI7
asI2771
(lp1409
I1
aI2
aI3
aI4
aI5
aI6
aI7
aI8
asI2773
(lp1410
I1
aI2
aI3
aI4
aI5
aI6
asI2774
(lp1411
I1
aI3
aI4
aI5
aI6
aI8
asI2776
(lp1412
I1
aI2
aI4
aI5
aI6
asI2777
(lp1413
I1
aI2
aI3
aI5
aI6
asI2779
(lp1414
I1
aI2
aI3
aI4
aI5
aI6
aI7
asI2784
(lp1415
I0
aI8
asI2786
(lp1416
I0
aI8
asI2787
(lp1417
I3
aI5
aI8
asI2795
(lp1418
I1
aI2
aI3
aI4
aI5
aI6
aI7
asI2796
(lp1419
I0
aI3
aI8
asI2797
(lp1420
I1
aI2
aI5
aI6
aI7
aI8
asI2798
(lp1421
I1
aI3
aI5
aI6
asI2801
(lp1422
I1
aI2
aI4
aI5
aI6
aI7
asI2802
(lp1423
I1
aI2
aI3
aI5
aI6
aI7
aI8
asI2803
(lp1424
I8
asI2804
(lp1425
I1
aI2
aI3
aI5
aI6
asI2805
(lp1426
I1
aI2
aI3
aI5
aI6
aI7
asI2806
(lp1427
I1
aI3
aI5
aI6
asI2808
(lp1428
I0
aI2
aI5
aI6
aI8
asI2810
(lp1429
I6
aI8
asI2812
(lp1430
I1
aI2
aI4
aI5
aI6
aI7
asI2813
(lp1431
I3
asI2814
(lp1432
I1
aI2
aI4
aI5
aI6
aI7
asI2817
(lp1433
I1
aI2
aI4
aI5
aI6
aI7
asI2820
(lp1434
I0
aI8
asI2826
(lp1435
I0
asI2828
(lp1436
I2
aI3
aI5
aI6
aI7
asI2829
(lp1437
I0
aI2
aI3
aI8
asI2830
(lp1438
I3
aI8
asI2833
(lp1439
I3
aI8
asI2837
(lp1440
I0
aI1
aI2
aI5
aI6
aI8
asI2839
(lp1441
I0
aI6
aI8
asI2841
(lp1442
I0
aI3
aI8
asI2845
(lp1443
I1
aI2
aI4
aI5
aI6
aI8
asI2846
(lp1444
I8
asI2847
(lp1445
I3
aI5
aI6
aI8
asI2850
(lp1446
I8
asI2851
(lp1447
I6
aI8
asI2852
(lp1448
I1
aI2
aI5
aI6
aI8
asI2854
(lp1449
I0
aI1
aI3
aI5
aI6
aI8
asI2858
(lp1450
I0
aI1
aI5
aI6
aI8
asI2861
(lp1451
I1
aI8
asI2864
(lp1452
I0
aI1
aI2
aI6
aI8
asI2869
(lp1453
I6
aI8
asI2872
(lp1454
I0
aI8
asI2878
(lp1455
I1
aI2
aI4
aI5
aI6
aI7
asI2880
(lp1456
I1
aI2
aI3
aI4
aI5
aI6
asI2881
(lp1457
I1
aI2
aI3
aI4
aI5
aI6
aI7
asI2882
(lp1458
I0
aI3
aI8
asI2885
(lp1459
I0
aI1
aI2
aI5
aI6
aI8
asI2886
(lp1460
I0
aI3
aI8
asI2888
(lp1461
I0
aI8
asI2889
(lp1462
I3
aI8
asI2890
(lp1463
I0
aI5
aI8
asI2891
(lp1464
I1
aI3
aI5
aI6
asI2892
(lp1465
I6
aI8
asI2894
(lp1466
I0
aI1
aI2
aI3
aI5
aI6
aI8
asI2895
(lp1467
I2
aI3
aI4
aI5
aI6
asI2896
(lp1468
I3
aI6
aI8
asI2897
(lp1469
I1
aI2
aI3
aI4
aI5
aI6
aI7
asI2901
(lp1470
I0
aI3
aI5
aI8
asI2906
(lp1471
I2
aI3
aI5
aI6
aI8
asI2907
(lp1472
I0
aI1
aI2
aI3
aI5
aI6
aI8
asI2908
(lp1473
I1
aI2
aI4
aI5
aI6
asI2909
(lp1474
I0
aI6
aI8
asI2910
(lp1475
I0
aI2
aI3
aI5
aI6
asI2911
(lp1476
I0
aI1
aI8
asI2912
(lp1477
I6
aI8
asI2915
(lp1478
I0
aI8
asI2919
(lp1479
I0
aI3
aI5
aI8
asI2920
(lp1480
I1
aI2
aI5
aI6
asI2923
(lp1481
I1
aI2
aI3
aI4
aI5
aI6
asI2924
(lp1482
I1
aI2
aI5
aI6
aI8
asI2927
(lp1483
I0
aI3
aI8
asI2929
(lp1484
I0
aI3
aI5
aI6
asI2933
(lp1485
I1
aI2
aI3
aI5
aI6
asI2934
(lp1486
I1
aI2
aI5
aI6
aI7
asI2935
(lp1487
I3
aI8
asI2936
(lp1488
I1
aI2
aI4
aI5
aI6
aI7
asI2938
(lp1489
I1
aI2
aI4
aI5
aI6
aI7
asI2939
(lp1490
I3
aI8
asI2940
(lp1491
I0
aI5
aI6
aI8
asI2942
(lp1492
I3
aI8
asI2943
(lp1493
I1
aI2
aI3
aI5
aI6
aI8
asI2947
(lp1494
I3
aI5
aI8
asI2948
(lp1495
I6
aI8
asI2952
(lp1496
I2
aI3
aI5
aI6
aI8
asI2953
(lp1497
I1
aI2
aI4
aI5
aI6
asI2955
(lp1498
I0
aI8
asI2957
(lp1499
I1
aI2
aI3
aI4
aI5
aI6
aI7
asI2959
(lp1500
I1
aI2
aI3
aI4
aI5
aI6
aI7
asI2961
(lp1501
I3
aI6
aI8
asI2963
(lp1502
I1
aI2
aI4
aI5
aI6
aI7
asI2964
(lp1503
I5
aI6
aI8
asI2970
(lp1504
I0
aI8
asI2971
(lp1505
I1
aI2
aI5
aI6
aI7
asI2974
(lp1506
I0
aI3
aI6
aI8
asI2979
(lp1507
I0
aI1
aI5
aI6
asI2985
(lp1508
I1
aI2
aI4
aI5
aI6
aI7
asI2986
(lp1509
I3
aI8
asI2988
(lp1510
I5
aI8
asI2994
(lp1511
I0
aI3
aI8
asI2995
(lp1512
I1
aI2
aI3
aI6
aI8
asI2996
(lp1513
I8
asI2997
(lp1514
I2
aI5
aI6
aI8
asI2998
(lp1515
I1
aI2
aI3
aI4
aI5
aI6
aI7
aI8
asI2999
(lp1516
I1
aI2
aI5
aI6
aI8
asI3003
(lp1517
I0
aI8
asI3004
(lp1518
I0
aI5
aI8
asI3007
(lp1519
I1
aI2
aI3
aI5
aI6
aI8
asI3008
(lp1520
I1
aI2
aI3
aI4
aI5
aI6
aI7
asI3010
(lp1521
I2
aI5
aI6
aI8
asI3011
(lp1522
I0
aI1
aI2
aI6
asI3013
(lp1523
I0
aI1
aI2
aI3
aI5
aI6
aI8
asI3018
(lp1524
I1
aI2
aI4
aI5
aI6
aI7
aI8
asI3019
(lp1525
I3
aI6
asI3020
(lp1526
I0
aI3
aI8
asI3021
(lp1527
I0
aI1
aI3
aI8
asI3024
(lp1528
I6
aI8
asI3032
(lp1529
I2
aI3
aI5
aI6
aI8
asI3034
(lp1530
I3
aI8
asI3037
(lp1531
I1
aI2
aI3
aI4
aI5
aI6
aI7
asI3038
(lp1532
I0
aI3
aI8
asI3039
(lp1533
I1
aI2
aI4
aI5
aI6
asI3040
(lp1534
I0
aI3
aI5
aI8
asI3044
(lp1535
I0
aI2
aI6
aI8
asI3046
(lp1536
I0
aI2
aI8
asI3048
(lp1537
I1
aI2
aI3
aI5
aI6
asI3049
(lp1538
I1
aI2
aI3
aI4
aI5
aI6
aI7
asI3052
(lp1539
I1
aI2
aI3
aI4
aI5
aI6
aI7
asI3055
(lp1540
I0
aI2
aI4
aI5
aI6
aI7
asI3061
(lp1541
I1
aI2
aI5
aI6
aI7
aI8
asI3062
(lp1542
I1
aI2
aI3
aI4
aI5
aI6
aI7
aI8
asI3063
(lp1543
I1
aI2
aI3
aI4
aI5
aI6
aI7
asI3065
(lp1544
I1
aI2
aI4
aI5
aI6
aI7
asI3067
(lp1545
I1
aI5
aI6
aI8
asI3068
(lp1546
I1
aI2
aI3
aI4
aI5
aI6
aI7
asI3071
(lp1547
I0
aI8
asI3072
(lp1548
I8
asI3074
(lp1549
I5
aI6
aI8
asI3076
(lp1550
I0
aI3
aI8
asI3077
(lp1551
I0
aI2
aI6
aI8
asI3079
(lp1552
I0
aI1
aI8
asI3080
(lp1553
I0
asI3083
(lp1554
I0
aI8
asI3085
(lp1555
I2
aI3
aI4
aI5
aI6
asI3091
(lp1556
I1
aI2
aI4
aI5
aI6
aI7
asI3092
(lp1557
I1
aI2
aI4
aI5
aI6
aI7
asI3093
(lp1558
I6
aI8
asI3094
(lp1559
I0
aI1
aI2
aI5
aI6
aI7
aI8
asI3097
(lp1560
I0
aI8
asI3098
(lp1561
I1
aI2
aI3
aI5
aI6
aI7
aI8
asI3101
(lp1562
I0
aI3
aI8
asI3105
(lp1563
I0
aI3
aI5
aI8
asI3106
(lp1564
I0
aI8
asI3108
(lp1565
I3
aI8
asI3109
(lp1566
I1
aI2
aI5
aI6
asI3110
(lp1567
I0
aI1
aI2
aI5
aI6
aI8
asI3112
(lp1568
I3
aI6
aI8
asI3113
(lp1569
I6
aI8
asI3114
(lp1570
I0
aI8
asI3115
(lp1571
I0
aI1
aI2
aI3
aI5
aI6
aI7
aI8
asI3120
(lp1572
I0
aI3
aI8
asI3123
(lp1573
I1
aI6
aI8
asI3128
(lp1574
I2
aI3
aI4
aI5
aI6
aI8
asI3133
(lp1575
I1
aI2
aI4
aI6
aI8
asI3137
(lp1576
I3
aI8
asI3138
(lp1577
I3
aI8
asI3140
(lp1578
I1
aI2
aI5
aI6
aI8
asI3144
(lp1579
I1
aI2
aI5
aI6
aI7
asI3147
(lp1580
I1
aI2
aI3
aI5
aI6
aI7
asI3148
(lp1581
I6
aI8
asI3149
(lp1582
I0
aI2
aI5
aI6
aI7
aI8
asI3150
(lp1583
I1
aI2
aI3
aI4
aI5
aI6
asI3152
(lp1584
I2
aI6
aI8
asI3157
(lp1585
I0
aI3
aI8
asI3158
(lp1586
I3
aI8
asI3159
(lp1587
I0
aI2
aI5
aI6
asI3160
(lp1588
I0
aI1
aI2
aI6
aI8
asI3163
(lp1589
I0
aI2
aI3
aI5
aI6
aI8
asI3167
(lp1590
I0
aI1
aI2
aI6
aI8
asI3168
(lp1591
I0
aI8
asI3169
(lp1592
I0
aI8
asI3170
(lp1593
I1
aI2
aI4
aI5
aI6
asI3173
(lp1594
I0
aI3
aI5
aI8
asI3175
(lp1595
I3
aI5
aI6
aI8
asI3176
(lp1596
I3
aI5
aI8
asI3177
(lp1597
I3
aI5
aI6
aI8
asI3179
(lp1598
I1
aI2
aI4
aI5
aI6
aI7
asI3180
(lp1599
I0
aI8
asI3187
(lp1600
I8
asI3189
(lp1601
I1
aI2
aI5
aI6
aI7
aI8
asI3191
(lp1602
I1
aI2
aI4
aI5
aI6
asI3196
(lp1603
I1
aI2
aI3
aI4
aI5
aI6
aI7
asI3198
(lp1604
I0
aI6
aI8
asI3201
(lp1605
I0
aI3
aI8
asI3202
(lp1606
I0
aI2
aI5
aI6
aI8
asI3203
(lp1607
I1
aI2
aI3
aI4
aI5
aI6
asI3204
(lp1608
I0
aI8
asI3205
(lp1609
I0
aI1
aI2
aI5
aI6
aI7
aI8
asI3206
(lp1610
I1
aI2
aI3
aI4
aI5
aI6
aI7
asI3207
(lp1611
I3
aI8
asI3208
(lp1612
I1
aI2
aI3
aI4
aI5
aI6
aI8
asI3211
(lp1613
I0
aI2
aI3
aI5
aI6
aI8
asI3212
(lp1614
I1
aI2
aI5
aI6
aI7
aI8
asI3214
(lp1615
I6
aI8
asI3216
(lp1616
I1
aI5
aI6
aI7
asI3217
(lp1617
I1
aI2
aI4
aI5
aI6
aI7
asI3218
(lp1618
I2
aI3
aI4
aI5
aI6
aI7
aI8
asI3222
(lp1619
I5
aI6
aI8
asI3226
(lp1620
I1
aI2
aI4
aI5
aI6
aI7
aI8
asI3229
(lp1621
I0
aI8
asI3230
(lp1622
I1
aI2
aI3
aI4
aI5
aI6
asI3232
(lp1623
I1
aI2
aI4
aI5
aI6
aI7
asI3235
(lp1624
I1
aI2
aI4
aI5
aI6
aI8
asI3237
(lp1625
I0
aI3
aI8
asI3240
(lp1626
I1
aI2
aI3
aI4
aI5
aI6
asI3241
(lp1627
I3
aI8
asI3242
(lp1628
I0
aI2
aI6
aI8
asI3248
(lp1629
I1
aI2
aI3
aI4
aI5
aI6
aI7
asI3249
(lp1630
I1
aI2
aI3
aI4
aI5
aI6
aI7
asI3250
(lp1631
I1
aI4
aI5
aI6
aI7
aI8
asI3253
(lp1632
I1
aI2
aI3
aI5
aI6
aI7
asI3255
(lp1633
I3
aI8
asI3257
(lp1634
I0
aI3
aI8
asI3258
(lp1635
I1
aI2
aI3
aI5
aI6
aI7
asI3261
(lp1636
I1
aI2
aI3
aI5
aI6
aI7
aI8
asI3262
(lp1637
I3
aI5
aI6
aI8
asI3263
(lp1638
I8
asI3264
(lp1639
I3
aI6
aI8
asI3268
(lp1640
I1
aI2
aI4
aI5
aI6
asI3271
(lp1641
I2
aI3
aI5
aI6
aI8
asI3274
(lp1642
I0
aI8
asI3275
(lp1643
I0
aI3
aI8
asI3277
(lp1644
I1
aI2
aI3
aI4
aI5
aI6
asI3285
(lp1645
I0
aI6
aI8
asI3287
(lp1646
I2
aI5
aI6
asI3291
(lp1647
I6
aI8
asI3292
(lp1648
I6
aI8
asI3294
(lp1649
I0
aI1
aI2
aI5
aI8
asI3295
(lp1650
I3
aI5
aI6
aI8
asI3296
(lp1651
I1
aI2
aI4
aI5
aI6
aI7
asI3297
(lp1652
I1
aI2
aI5
aI6
aI7
aI8
asI3301
(lp1653
I0
aI8
asI3303
(lp1654
I1
aI5
aI6
aI8
asI3305
(lp1655
I3
aI6
asI3307
(lp1656
I1
aI2
aI5
aI6
aI8
asI3308
(lp1657
I8
asI3311
(lp1658
I1
aI2
aI3
aI5
aI6
aI7
asI3312
(lp1659
I6
aI8
asI3313
(lp1660
I1
aI2
aI4
aI5
aI6
aI7
aI8
asI3318
(lp1661
I1
aI2
aI3
aI5
aI6
asI3319
(lp1662
I1
aI2
aI3
aI5
aI6
aI7
asI3320
(lp1663
I1
aI2
aI5
aI6
aI8
asI3321
(lp1664
I1
aI2
aI3
aI5
aI6
asI3325
(lp1665
I0
aI8
asI3326
(lp1666
I1
aI2
aI3
aI5
aI6
aI7
asI3327
(lp1667
I1
aI3
aI4
aI5
aI6
asI3328
(lp1668
I1
aI2
aI3
aI4
aI5
aI6
aI7
asI3329
(lp1669
I0
aI2
aI3
aI6
asI3330
(lp1670
I1
aI2
aI3
aI4
aI5
aI6
asI3337
(lp1671
I0
aI8
asI3339
(lp1672
I1
aI2
aI3
aI4
aI5
aI6
aI7
asI3341
(lp1673
I2
aI3
aI5
aI6
asI3342
(lp1674
I3
aI8
asI3343
(lp1675
I0
aI1
aI8
asI3347
(lp1676
I6
aI8
asI3348
(lp1677
I1
aI2
aI4
aI5
aI6
aI7
asI3350
(lp1678
I0
aI1
aI2
aI5
aI6
aI8
asI3352
(lp1679
I0
aI3
aI8
asI3353
(lp1680
I1
aI2
aI4
aI5
aI6
asI3354
(lp1681
I2
aI3
aI6
aI8
asI3363
(lp1682
I3
aI5
aI8
asI3364
(lp1683
I0
aI8
asI3371
(lp1684
I1
aI5
aI6
asI3374
(lp1685
I1
aI2
aI3
aI4
aI5
aI6
asI3375
(lp1686
I1
aI2
aI4
aI5
aI6
aI7
asI3376
(lp1687
I1
aI2
aI4
aI5
aI6
aI7
asI3377
(lp1688
I3
aI5
aI6
asI3380
(lp1689
I1
aI2
aI4
aI5
aI6
aI7
aI8
asI3382
(lp1690
I1
aI2
aI3
aI5
aI6
asI3385
(lp1691
I2
aI4
aI5
aI6
asI3386
(lp1692
I1
aI2
aI4
aI5
aI6
aI7
asI3391
(lp1693
I1
aI2
aI3
aI4
aI5
aI6
aI7
asI3394
(lp1694
I0
aI3
aI5
aI8
asI3395
(lp1695
I3
asI3397
(lp1696
I3
aI8
asI3401
(lp1697
I0
aI8
asI3403
(lp1698
I0
aI1
aI2
aI5
aI6
aI8
asI3404
(lp1699
I0
aI3
aI5
aI8
asI3405
(lp1700
I3
aI6
aI8
asI3407
(lp1701
I1
aI2
aI4
aI5
aI6
aI7
asI3409
(lp1702
I1
aI2
aI3
aI4
aI5
aI6
asI3410
(lp1703
I1
aI2
aI3
aI4
aI5
aI6
asI3412
(lp1704
I0
aI1
aI2
aI5
aI6
aI8
asI3414
(lp1705
I0
aI2
aI3
aI8
asI3416
(lp1706
I0
aI5
aI6
aI8
asI3417
(lp1707
I6
aI8
asI3418
(lp1708
I1
aI2
aI3
aI4
aI5
aI6
aI7
asI3419
(lp1709
I1
aI2
aI5
aI6
aI7
aI8
asI3421
(lp1710
I3
aI8
asI3422
(lp1711
I6
asI3423
(lp1712
I0
aI1
aI3
aI5
aI6
aI8
asI3424
(lp1713
I2
aI3
aI4
aI5
aI6
aI7
aI8
asI3425
(lp1714
I1
aI2
aI5
aI6
asI3426
(lp1715
I1
aI2
aI4
aI5
aI6
aI7
asI3427
(lp1716
I5
aI6
aI8
asI3430
(lp1717
I0
aI8
asI3431
(lp1718
I1
aI2
aI4
aI5
aI6
aI7
asI3435
(lp1719
I2
aI3
aI4
aI5
aI6
aI8
asI3437
(lp1720
I1
aI2
aI4
aI5
aI6
aI7
asI3441
(lp1721
I6
aI8
asI3442
(lp1722
I1
aI2
aI3
aI5
aI6
asI3444
(lp1723
I0
aI8
asI3446
(lp1724
I0
aI3
aI8
asI3449
(lp1725
I1
aI2
aI4
aI5
aI6
aI7
asI3451
(lp1726
I1
aI2
aI5
aI6
aI7
asI3452
(lp1727
I1
aI2
aI5
aI6
asI3454
(lp1728
I3
aI5
asI3457
(lp1729
I2
aI5
aI6
aI8
asI3460
(lp1730
I6
aI8
asI3462
(lp1731
I1
aI2
aI5
aI6
aI7
asI3463
(lp1732
I0
aI3
aI8
asI3464
(lp1733
I0
aI3
aI5
aI8
asI3465
(lp1734
I1
aI2
aI3
aI4
aI5
aI6
asI3466
(lp1735
I1
aI2
aI3
aI4
aI5
aI6
aI7
aI8
asI3467
(lp1736
I1
aI2
aI3
aI4
aI5
aI6
aI7
asI3469
(lp1737
I1
aI2
aI4
aI5
aI6
aI8
asI3470
(lp1738
I0
aI8
asI3473
(lp1739
I1
aI2
aI3
aI4
aI5
aI6
asI3474
(lp1740
I0
aI2
aI3
aI6
aI8
asI3476
(lp1741
I3
aI8
asI3478
(lp1742
I1
aI2
aI3
aI4
aI5
aI6
aI7
asI3479
(lp1743
I6
aI8
asI3485
(lp1744
I0
aI1
aI2
aI3
aI5
aI6
aI8
asI3487
(lp1745
I1
aI2
aI5
aI6
aI8
asI3488
(lp1746
I1
aI2
aI3
aI5
aI6
aI7
asI3496
(lp1747
I1
aI2
aI4
aI5
aI6
aI7
asI3497
(lp1748
I1
aI2
aI3
aI4
aI5
aI6
asI3501
(lp1749
I0
aI8
asI3504
(lp1750
I0
aI2
aI3
aI5
aI6
aI8
asI3506
(lp1751
I2
aI5
aI6
asI3507
(lp1752
I1
aI2
aI3
aI5
aI6
asI3509
(lp1753
I0
aI5
aI6
asI3511
(lp1754
I0
aI3
aI8
asI3519
(lp1755
I1
aI2
aI4
aI5
aI6
aI7
asI3521
(lp1756
I3
aI8
asI3522
(lp1757
I8
asI3523
(lp1758
I6
aI8
asI3525
(lp1759
I1
aI2
aI3
aI4
aI5
aI6
asI3528
(lp1760
I0
aI8
asI3529
(lp1761
I0
aI3
aI8
asI3533
(lp1762
I3
aI5
aI8
asI3537
(lp1763
I0
aI3
aI8
asI3538
(lp1764
I0
aI3
aI8
asI3540
(lp1765
I5
aI6
aI8
asI3543
(lp1766
I1
aI2
aI3
aI5
aI6
aI8
asI3546
(lp1767
I1
aI2
aI4
aI5
aI6
aI7
aI8
asI3547
(lp1768
I0
aI3
aI6
aI8
asI3549
(lp1769
I1
aI2
aI5
aI6
aI7
asI3550
(lp1770
I1
aI2
aI3
aI4
aI5
aI6
aI7
aI8
asI3552
(lp1771
I1
aI2
aI4
aI5
aI6
aI7
aI8
asI3555
(lp1772
I1
aI2
aI5
aI6
aI8
asI3558
(lp1773
I1
aI2
aI3
aI5
aI6
aI7
asI3559
(lp1774
I3
aI8
asI3561
(lp1775
I1
aI2
aI5
aI6
aI7
aI8
asI3562
(lp1776
I1
aI2
aI3
aI4
aI5
aI6
aI7
asI3563
(lp1777
I0
aI1
aI8
asI3565
(lp1778
I1
aI2
aI5
aI6
asI3567
(lp1779
I0
aI3
aI5
aI8
asI3570
(lp1780
I0
aI1
aI2
aI3
aI4
aI5
aI6
aI7
asI3571
(lp1781
I8
asI3574
(lp1782
I1
aI2
aI3
aI5
aI6
aI8
asI3577
(lp1783
I0
aI6
aI8
asI3578
(lp1784
I1
aI3
aI5
aI6
asI3580
(lp1785
I2
aI5
aI7
asI3582
(lp1786
I0
aI2
aI5
aI6
aI8
asI3588
(lp1787
I0
aI3
aI6
aI8
asI3589
(lp1788
I0
aI3
aI6
aI8
asI3590
(lp1789
I0
aI8
asI3592
(lp1790
I2
aI3
aI5
aI6
aI8
asI3593
(lp1791
I1
aI3
aI5
aI8
asI3594
(lp1792
I1
aI2
aI4
aI5
aI6
aI7
asI3595
(lp1793
I1
aI2
aI3
aI4
aI5
aI6
aI7
asI3596
(lp1794
I0
aI5
aI8
asI3598
(lp1795
I1
aI5
aI6
aI7
asI3599
(lp1796
I1
aI2
aI5
aI6
aI8
asI3600
(lp1797
I1
aI2
aI3
aI5
aI6
aI7
asI3602
(lp1798
I1
aI2
aI4
aI5
aI6
asI3603
(lp1799
I1
aI2
aI3
aI4
aI5
aI6
aI7
asI3604
(lp1800
I1
aI2
aI4
aI5
aI6
aI7
asI3605
(lp1801
I6
aI8
asI3606
(lp1802
I0
aI1
aI2
aI3
aI6
aI8
asI3609
(lp1803
I8
asI3611
(lp1804
I0
aI5
aI8
asI3612
(lp1805
I0
aI2
aI3
aI8
asI3613
(lp1806
I0
aI1
aI2
aI3
aI4
aI5
aI6
asI3615
(lp1807
I1
aI3
aI5
aI8
asI3616
(lp1808
I6
aI8
asI3617
(lp1809
I2
aI8
asI3618
(lp1810
I5
aI6
aI8
asI3619
(lp1811
I1
aI2
aI3
aI4
aI5
aI6
asI3625
(lp1812
I0
aI8
asI3628
(lp1813
I0
aI3
aI5
aI8
asI3632
(lp1814
I0
aI3
aI8
asI3637
(lp1815
I1
aI2
aI4
aI5
aI6
aI7
asI3638
(lp1816
I0
aI8
asI3646
(lp1817
I2
aI6
aI8
asI3650
(lp1818
I8
asI3651
(lp1819
I0
aI2
aI3
aI6
aI8
asI3656
(lp1820
I1
aI2
aI3
aI4
aI5
aI6
aI7
asI3657
(lp1821
I0
aI1
aI2
aI3
aI5
aI6
aI8
asI3661
(lp1822
I1
aI2
aI3
aI4
aI5
aI6
aI7
asI3663
(lp1823
I0
aI3
aI8
asI3664
(lp1824
I0
aI8
asI3665
(lp1825
I1
aI2
aI3
aI4
aI5
aI6
aI7
asI3666
(lp1826
I0
aI1
aI2
aI5
aI6
aI7
asI3668
(lp1827
I1
aI2
aI3
aI4
aI5
aI6
asI3670
(lp1828
I1
aI2
aI4
aI5
aI6
aI7
asI3672
(lp1829
I1
aI2
aI5
aI6
aI8
asI3673
(lp1830
I2
aI5
aI6
aI8
asI3675
(lp1831
I1
aI2
aI3
aI4
aI5
aI6
aI7
asI3677
(lp1832
I2
aI3
aI4
aI5
aI6
aI7
aI8
asI3678
(lp1833
I0
aI8
asI3682
(lp1834
I1
aI2
aI3
aI5
aI6
aI7
asI3683
(lp1835
I3
aI5
aI6
aI8
asI3685
(lp1836
I0
aI1
aI3
aI8
asI3686
(lp1837
I0
aI3
aI8
asI3689
(lp1838
I0
aI3
aI8
asI3690
(lp1839
I0
aI3
aI5
aI8
asI3692
(lp1840
I5
aI6
aI8
asI3693
(lp1841
I3
aI6
aI8
asI3696
(lp1842
I1
aI2
aI3
aI4
aI5
aI6
asI3697
(lp1843
I0
aI3
aI8
asI3699
(lp1844
I1
aI2
aI3
aI4
aI5
aI6
aI7
asI3700
(lp1845
I1
aI2
aI4
aI5
aI6
asI3701
(lp1846
I3
aI8
asI3702
(lp1847
I3
aI5
aI6
aI8
asI3703
(lp1848
I3
aI8
asI3704
(lp1849
I2
aI3
aI5
aI6
asI3705
(lp1850
I0
aI8
asI3706
(lp1851
I1
aI2
aI4
aI5
aI6
asI3707
(lp1852
I1
aI2
aI3
aI4
aI5
aI6
asI3718
(lp1853
I1
aI2
aI3
aI5
aI6
asI3719
(lp1854
I1
aI2
aI4
aI5
aI6
aI7
asI3721
(lp1855
I1
aI2
aI3
aI5
aI6
aI7
asI3726
(lp1856
I6
aI8
asI3727
(lp1857
I3
aI5
aI6
aI7
aI8
asI3728
(lp1858
I0
aI3
aI8
asI3730
(lp1859
I0
aI3
aI8
asI3731
(lp1860
I0
aI3
aI8
asI3735
(lp1861
I5
aI6
aI8
asI3737
(lp1862
I1
aI2
aI4
aI5
aI6
aI7
asI3738
(lp1863
I3
aI8
asI3739
(lp1864
I0
aI8
asI3741
(lp1865
I1
aI2
aI4
aI5
aI6
asI3743
(lp1866
I1
aI2
aI4
aI5
aI6
asI3746
(lp1867
I1
aI2
aI3
aI4
aI6
asI3747
(lp1868
I0
aI1
aI5
aI8
asI3748
(lp1869
I1
aI2
aI3
aI4
aI5
aI6
aI7
asI3750
(lp1870
I1
aI2
aI3
aI5
aI6
aI7
asI3751
(lp1871
I5
aI6
aI8
asI3752
(lp1872
I0
aI8
asI3753
(lp1873
I1
aI2
aI3
aI4
aI5
aI6
aI7
asI3754
(lp1874
I1
aI2
aI5
aI6
aI8
asI3760
(lp1875
I0
aI3
aI8
asI3761
(lp1876
I0
aI3
aI5
aI6
aI8
asI3762
(lp1877
I5
aI6
aI8
asI3764
(lp1878
I0
aI3
aI8
asI3767
(lp1879
I0
aI3
aI8
asI3768
(lp1880
I1
aI2
aI3
aI4
aI5
aI6
asI3769
(lp1881
I1
aI2
aI4
aI5
aI6
asI3772
(lp1882
I0
aI2
aI5
aI8
asI3774
(lp1883
I0
aI3
aI5
aI6
aI8
asI3775
(lp1884
I1
aI2
aI4
aI5
aI6
aI7
asI3777
(lp1885
I0
aI8
asI3779
(lp1886
I8
asI3781
(lp1887
I1
aI2
aI3
aI4
aI5
aI6
aI7
asI3782
(lp1888
I3
aI8
asI3783
(lp1889
I1
aI2
aI4
aI5
aI6
aI7
asI3784
(lp1890
I1
aI2
aI3
aI4
aI5
aI6
asI3787
(lp1891
I1
aI2
aI5
aI6
aI7
aI8
asI3789
(lp1892
I1
asI3791
(lp1893
I0
aI3
aI8
asI3793
(lp1894
I0
aI3
aI5
aI8
asI3794
(lp1895
I1
aI2
aI3
aI4
aI5
aI6
aI7
asI3796
(lp1896
I1
aI2
aI3
aI4
aI5
aI6
aI7
asI3798
(lp1897
I1
aI2
aI3
aI4
aI5
aI6
aI8
asI3799
(lp1898
I0
aI2
aI3
aI5
aI6
aI7
asI3801
(lp1899
I0
aI8
asI3809
(lp1900
I1
aI8
asI3810
(lp1901
I5
aI6
asI3813
(lp1902
I1
aI2
aI3
aI4
aI5
aI6
aI7
asI3815
(lp1903
I3
aI8
asI3816
(lp1904
I1
aI2
aI3
aI4
aI5
aI6
aI7
aI8
asI3818
(lp1905
I0
aI1
aI2
aI4
aI5
aI6
aI7
aI8
asI3820
(lp1906
I1
aI2
aI3
aI5
aI6
aI7
aI8
asI3822
(lp1907
I0
aI1
aI5
aI6
aI8
asI3823
(lp1908
I0
aI6
aI8
asI3824
(lp1909
I0
aI3
aI5
aI6
aI8
asI3826
(lp1910
I0
aI8
asI3827
(lp1911
I1
aI2
aI4
aI5
aI6
asI3828
(lp1912
I1
aI2
aI3
aI5
aI6
aI7
aI8
asI3831
(lp1913
I0
aI3
aI8
asI3833
(lp1914
I0
aI6
aI8
asI3835
(lp1915
I1
aI6
aI8
asI3836
(lp1916
I1
aI5
aI6
aI8
asI3839
(lp1917
I0
aI3
aI5
aI8
asI3842
(lp1918
I0
aI2
aI3
aI5
aI6
aI8
asI3843
(lp1919
I8
asI3844
(lp1920
I1
aI2
aI3
aI5
aI6
aI7
asI3846
(lp1921
I1
aI2
aI3
aI4
aI5
aI6
aI7
asI3847
(lp1922
I1
aI2
aI5
aI6
aI8
asI3848
(lp1923
I1
aI2
aI3
aI4
aI5
aI6
aI7
asI3849
(lp1924
I1
aI2
aI4
aI5
aI6
asI3850
(lp1925
I0
aI1
aI3
aI5
aI6
aI8
asI3854
(lp1926
I1
aI2
aI4
aI5
aI6
aI7
asI3856
(lp1927
I1
aI2
aI3
aI4
aI5
aI6
aI7
asI3858
(lp1928
I1
aI2
aI4
aI5
aI6
aI7
asI3860
(lp1929
I1
aI2
aI5
aI6
aI8
asI3863
(lp1930
I0
aI1
aI2
aI3
aI5
aI6
aI8
asI3865
(lp1931
I1
aI2
aI4
aI5
aI6
aI7
asI3866
(lp1932
I1
aI2
aI4
aI5
aI6
aI7
asI3869
(lp1933
I0
aI3
aI8
asI3870
(lp1934
I6
aI8
asI3873
(lp1935
I6
aI8
asI3874
(lp1936
I6
aI8
asI3875
(lp1937
I3
aI6
aI8
asI3876
(lp1938
I0
aI3
aI8
asI3877
(lp1939
I1
aI2
aI3
aI4
aI5
aI6
aI7
asI3881
(lp1940
I0
aI1
asI3883
(lp1941
I2
aI5
aI6
aI8
asI3886
(lp1942
I0
aI3
aI5
aI8
asI3888
(lp1943
I0
aI1
aI2
aI3
aI5
aI6
aI7
aI8
asI3891
(lp1944
I3
aI8
asI3893
(lp1945
I1
aI3
aI5
aI6
asI3894
(lp1946
I0
aI3
aI8
asI3895
(lp1947
I1
aI2
aI3
aI4
aI5
aI6
aI7
asI3896
(lp1948
I0
aI8
asI3897
(lp1949
I1
aI2
aI3
aI5
aI6
asI3901
(lp1950
I3
aI5
aI6
aI8
asI3902
(lp1951
I0
aI1
aI2
aI5
aI6
aI7
asI3905
(lp1952
I2
aI3
aI5
aI6
asI3907
(lp1953
I1
aI2
aI3
aI5
aI6
aI8
asI3908
(lp1954
I0
aI5
aI6
asI3909
(lp1955
I0
aI1
aI8
asI3910
(lp1956
I0
aI8
asI3913
(lp1957
I0
aI3
aI5
aI6
asI3914
(lp1958
I0
aI1
aI5
aI6
asI3917
(lp1959
I1
aI2
aI5
aI6
asI3919
(lp1960
I0
aI2
aI5
aI6
aI8
asI3920
(lp1961
I5
aI6
asI3921
(lp1962
I1
aI2
aI3
aI5
aI6
aI8
asI3923
(lp1963
I0
aI2
aI3
aI8
asI3924
(lp1964
I3
aI8
asI3925
(lp1965
I1
aI3
aI5
aI6
aI7
asI3926
(lp1966
I1
aI2
aI3
aI4
aI5
aI6
asI3929
(lp1967
I1
aI2
aI3
aI4
aI5
aI6
asI3932
(lp1968
I0
aI5
aI8
asI3936
(lp1969
I0
aI8
asI3937
(lp1970
I1
aI2
aI4
aI5
aI6
aI7
asI3938
(lp1971
I1
aI2
aI5
aI6
aI7
aI8
asI3941
(lp1972
I1
aI2
aI4
aI5
aI6
aI7
asI3943
(lp1973
I3
aI8
asI3945
(lp1974
I1
aI2
aI5
aI6
aI7
asI3946
(lp1975
I0
aI3
aI5
aI8
asI3947
(lp1976
I1
aI2
aI3
aI4
aI5
aI6
aI7
asI3952
(lp1977
I0
aI3
aI8
asI3954
(lp1978
I0
aI8
asI3955
(lp1979
I1
aI2
aI6
aI8
asI3956
(lp1980
I0
aI1
aI2
aI6
asI3961
(lp1981
I1
aI8
asI3965
(lp1982
I0
aI1
aI2
aI5
aI6
aI7
aI8
asI3971
(lp1983
I8
asI3973
(lp1984
I1
aI2
aI4
aI5
aI6
asI3979
(lp1985
I1
aI2
aI3
aI5
aI6
aI7
asI3980
(lp1986
I0
aI1
aI8
asI3982
(lp1987
I0
aI6
aI8
asI3983
(lp1988
I0
aI1
aI6
aI8
asI3986
(lp1989
I1
aI3
aI5
aI6
asI3987
(lp1990
I0
aI3
aI8
asI3988
(lp1991
I3
aI6
aI8
asI3989
(lp1992
I8
asI3992
(lp1993
I5
aI6
aI8
asI3994
(lp1994
I0
aI1
aI8
asI3998
(lp1995
I1
aI2
aI3
aI5
aI6
aI8
asI3999
(lp1996
I1
aI2
aI4
aI5
aI6
aI7
asI4000
(lp1997
I8
as.